(lp0
I0
aF592.0
aF527.0
aF476.0
aF438.0
aF500.0
aF395.0
aF395.0
aF481.0
aF485.0
aF541.0
aF556.0
aF512.0
aF367.0
aF315.0
aF387.0
aF586.0
aF491.0
aF355.0
aF497.0
aF602.0
aF548.0
aF561.0
aF551.0
aF596.0
aF351.0
aF415.0
aF420.0
aF385.0
aF345.0
aF408.0
aF264.0
aF411.0
aF512.0
aF473.0
aF412.0
aF401.0
aF429.0
aF550.0
aF457.0
aF345.0
aF337.0
aF345.0
aF375.0
aF467.0
aF545.0
aF462.0
aF455.0
aF301.0
aF333.0
aF438.0
aF434.0
aF392.0
aF415.0
aF437.0
aF522.0
aF414.0
aF392.0
aF323.0
aF383.0
aF382.0
aF375.0
aF327.0
aF495.0
aF587.0
aF524.0
aF402.0
aF287.0
aF291.0
aF306.0
aF334.0
aF401.0
aF517.0
aF425.0
aF311.0
aF300.0
aF226.0
aF302.0
aF362.0
aF402.0
aF355.0
aF421.0
aF366.0
aF344.0
aF354.0
aF355.0
aF412.0
aF398.0
aF487.0
aF381.0
aF384.0
aF407.0
aF380.0
aF364.0
aF443.0
aF372.0
aF355.0
aF433.0
aF354.0
aF404.0
aF457.0
aF512.0
aF385.0
aF233.0
aF294.0
aF248.0
aF317.0
aF379.0
aF405.0
aF365.0
aF450.0
aF407.0
aF401.0
aF425.0
aF372.0
aF441.0
aF393.0
aF357.0
aF433.0
aF476.0
aF488.0
aF516.0
aF515.0
aF498.0
aF457.0
aF571.0
aF463.0
aF531.0
aF833.0
aF938.0
aF922.0
aF937.0
aF919.0
aF940.0
aF922.0
aF939.0
aF921.0
aF941.0
aF928.0
aF937.0
aF922.0
aF941.0
aF927.0
aF940.0
aF923.0
aF937.0
aF923.0
aF941.0
aF934.0
aF938.0
aF924.0
aF938.0
aF929.0
aF934.0
aF918.0
aF937.0
aF931.0
aF933.0
aF927.0
aF935.0
aF926.0
aF920.0
aF932.0
aF933.0
aF927.0
aF936.0
aF928.0
aF909.0
aF885.0
aF904.0
aF891.0
aF937.0
aF929.0
aF932.0
aF922.0
aF935.0
aF930.0
aF930.0
aF934.0
aF935.0
aF929.0
aF934.0
aF938.0
aF932.0
aF891.0
aF914.0
aF919.0
aF927.0
aF933.0
aF932.0
aF913.0
aF933.0
aF935.0
aF934.0
aF927.0
aF929.0
aF935.0
aF926.0
aF931.0
aF932.0
aF933.0
aF933.0
aF934.0
aF923.0
aF932.0
aF916.0
aF931.0
aF931.0
aF938.0
aF927.0
aF938.0
aF931.0
aF941.0
aF929.0
aF933.0
aF918.0
aF922.0
aF923.0
aF935.0
aF928.0
aF939.0
aF917.0
aF939.0
aF929.0
aF933.0
aF921.0
aF932.0
aF934.0
aF923.0
aF926.0
aF934.0
aF928.0
aF941.0
aF924.0
aF937.0
aF922.0
aF933.0
aF927.0
aF938.0
aF921.0
aF891.0
a.