(lp0
I0
aF278.0
aF399.0
aF435.0
aF443.0
aF259.0
aF425.0
aF531.0
aF444.0
aF440.0
aF334.0
aF333.0
aF417.0
aF559.0
aF614.0
aF534.0
aF308.0
aF398.0
aF445.0
aF423.0
aF299.0
aF371.0
aF362.0
aF352.0
aF333.0
aF532.0
aF515.0
aF458.0
aF539.0
aF527.0
aF517.0
aF666.0
aF491.0
aF403.0
aF417.0
aF504.0
aF489.0
aF476.0
aF379.0
aF469.0
aF494.0
aF533.0
aF586.0
aF503.0
aF440.0
aF370.0
aF422.0
aF362.0
aF568.0
aF543.0
aF462.0
aF457.0
aF495.0
aF508.0
aF478.0
aF401.0
aF470.0
aF504.0
aF574.0
aF527.0
aF496.0
aF546.0
aF599.0
aF426.0
aF329.0
aF349.0
aF492.0
aF630.0
aF623.0
aF574.0
aF537.0
aF518.0
aF410.0
aF485.0
aF576.0
aF628.0
aF707.0
aF608.0
aF552.0
aF483.0
aF408.0
aF475.0
aF495.0
aF587.0
aF565.0
aF513.0
aF498.0
aF502.0
aF391.0
aF505.0
aF462.0
aF493.0
aF515.0
aF444.0
aF452.0
aF502.0
aF424.0
aF473.0
aF551.0
aF515.0
aF439.0
aF415.0
aF535.0
aF665.0
aF630.0
aF651.0
aF579.0
aF532.0
aF482.0
aF506.0
aF457.0
aF471.0
aF513.0
aF471.0
aF550.0
aF462.0
aF541.0
aF561.0
aF488.0
aF431.0
aF391.0
aF375.0
aF341.0
aF395.0
aF438.0
aF352.0
aF487.0
aF441.0
aF842.0
aF941.0
aF933.0
aF941.0
aF930.0
aF941.0
aF930.0
aF934.0
aF935.0
aF941.0
aF936.0
aF941.0
aF927.0
aF941.0
aF935.0
aF940.0
aF930.0
aF941.0
aF934.0
aF941.0
aF937.0
aF941.0
aF931.0
aF937.0
aF931.0
aF940.0
aF925.0
aF934.0
aF934.0
aF936.0
aF936.0
aF940.0
aF927.0
aF931.0
aF938.0
aF939.0
aF933.0
aF938.0
aF933.0
aF926.0
aF902.0
aF907.0
aF904.0
aF937.0
aF932.0
aF939.0
aF932.0
aF929.0
aF936.0
aF936.0
aF937.0
aF936.0
aF933.0
aF931.0
aF938.0
aF938.0
aF907.0
aF916.0
aF923.0
aF931.0
aF938.0
aF930.0
aF920.0
aF931.0
aF935.0
aF938.0
aF930.0
aF935.0
aF935.0
aF936.0
aF935.0
aF929.0
aF938.0
aF937.0
aF938.0
aF930.0
aF935.0
aF932.0
aF935.0
aF938.0
aF936.0
aF936.0
aF935.0
aF936.0
aF938.0
aF938.0
aF936.0
aF928.0
aF931.0
aF932.0
aF937.0
aF937.0
aF934.0
aF929.0
aF940.0
aF931.0
aF935.0
aF933.0
aF938.0
aF935.0
aF925.0
aF935.0
aF940.0
aF932.0
aF940.0
aF933.0
aF937.0
aF932.0
aF938.0
aF934.0
aF941.0
aF932.0
aF890.0
a.