(lp0
I0
aF110.0
aF194.0
aF207.0
aF193.0
aF177.0
aF200.0
aF262.0
aF227.0
aF121.0
aF181.0
aF214.0
aF217.0
aF141.0
aF164.0
aF184.0
aF154.0
aF207.0
aF191.0
aF231.0
aF182.0
aF141.0
aF143.0
aF166.0
aF176.0
aF218.0
aF227.0
aF196.0
aF291.0
aF170.0
aF199.0
aF119.0
aF188.0
aF190.0
aF187.0
aF150.0
aF230.0
aF221.0
aF246.0
aF207.0
aF228.0
aF165.0
aF157.0
aF118.0
aF181.0
aF231.0
aF191.0
aF169.0
aF128.0
aF171.0
aF182.0
aF245.0
aF149.0
aF198.0
aF171.0
aF182.0
aF174.0
aF109.0
aF141.0
aF171.0
aF151.0
aF134.0
aF188.0
aF143.0
aF126.0
aF159.0
aF230.0
aF189.0
aF174.0
aF203.0
aF144.0
aF217.0
aF186.0
aF225.0
aF182.0
aF169.0
aF188.0
aF181.0
aF164.0
aF165.0
aF144.0
aF156.0
aF159.0
aF208.0
aF281.0
aF274.0
aF216.0
aF199.0
aF242.0
aF206.0
aF303.0
aF182.0
aF154.0
aF130.0
aF218.0
aF247.0
aF198.0
aF324.0
aF151.0
aF154.0
aF215.0
aF216.0
aF226.0
aF256.0
aF189.0
aF136.0
aF198.0
aF207.0
aF190.0
aF249.0
aF227.0
aF131.0
aF170.0
aF171.0
aF233.0
aF303.0
aF250.0
aF193.0
aF183.0
aF234.0
aF330.0
aF240.0
aF253.0
aF177.0
aF241.0
aF192.0
aF232.0
aF222.0
aF174.0
aF244.0
aF226.0
aF119.0
aF139.0
aF159.0
aF226.0
aF178.0
aF186.0
aF188.0
aF169.0
aF232.0
aF142.0
aF278.0
aF262.0
aF187.0
aF177.0
aF192.0
aF153.0
aF141.0
aF219.0
aF224.0
aF228.0
aF199.0
aF163.0
aF146.0
aF129.0
aF137.0
aF114.0
aF209.0
aF191.0
aF126.0
aF231.0
aF224.0
aF229.0
aF234.0
aF180.0
aF177.0
aF170.0
aF181.0
aF233.0
aF303.0
aF186.0
aF198.0
aF146.0
aF133.0
aF190.0
aF194.0
aF269.0
aF201.0
aF191.0
aF198.0
aF213.0
aF231.0
aF184.0
aF205.0
aF220.0
aF224.0
aF238.0
aF218.0
aF248.0
aF197.0
aF154.0
aF180.0
aF188.0
aF164.0
aF180.0
aF191.0
aF361.0
aF297.0
aF172.0
aF143.0
aF124.0
aF205.0
aF178.0
aF178.0
aF138.0
aF215.0
aF280.0
aF222.0
aF158.0
aF233.0
aF197.0
aF198.0
aF252.0
aF280.0
aF237.0
aF141.0
aF162.0
aF138.0
aF180.0
aF146.0
aF245.0
aF240.0
aF252.0
aF208.0
aF163.0
aF166.0
aF220.0
aF280.0
aF211.0
aF205.0
aF211.0
aF217.0
aF295.0
aF223.0
aF220.0
aF145.0
aF199.0
aF255.0
aF134.0
aF179.0
aF312.0
aF161.0
aF147.0
aF192.0
aF378.0
aF352.0
aF278.0
aF318.0
aF179.0
aF230.0
aF197.0
aF177.0
aF197.0
aF209.0
aF173.0
aF138.0
aF201.0
aF122.0
aF152.0
aF174.0
aF163.0
aF212.0
aF223.0
aF207.0
aF228.0
aF148.0
aF243.0
aF296.0
aF233.0
aF190.0
aF189.0
aF228.0
aF176.0
aF184.0
aF264.0
aF312.0
aF172.0
aF199.0
aF201.0
aF221.0
aF149.0
aF243.0
aF160.0
aF173.0
aF167.0
aF205.0
aF161.0
aF177.0
aF214.0
aF147.0
aF129.0
aF164.0
aF210.0
aF158.0
aF175.0
aF135.0
aF122.0
aF143.0
aF108.0
aF134.0
aF174.0
aF157.0
aF169.0
aF241.0
aF122.0
aF144.0
aF147.0
aF225.0
aF216.0
aF236.0
aF279.0
aF385.0
aF474.0
aF487.0
aF580.0
aF543.0
aF528.0
aF560.0
aF601.0
aF562.0
aF524.0
aF427.0
aF349.0
aF388.0
aF465.0
aF568.0
aF312.0
aF314.0
aF327.0
aF409.0
aF402.0
aF545.0
aF727.0
aF682.0
aF764.0
aF682.0
aF582.0
aF717.0
aF625.0
aF565.0
aF399.0
aF341.0
aF328.0
aF303.0
aF530.0
aF397.0
aF201.0
aF350.0
aF394.0
aF444.0
aF341.0
aF333.0
aF376.0
aF518.0
aF606.0
aF682.0
aF668.0
aF568.0
aF538.0
aF596.0
aF408.0
aF354.0
aF302.0
aF388.0
aF379.0
aF400.0
aF464.0
aF607.0
aF765.0
aF649.0
aF579.0
aF533.0
aF545.0
aF420.0
aF459.0
aF363.0
aF368.0
aF443.0
aF547.0
aF692.0
aF431.0
aF418.0
aF415.0
aF460.0
aF576.0
aF558.0
aF553.0
aF639.0
aF654.0
aF521.0
aF441.0
aF502.0
aF449.0
aF313.0
aF468.0
aF533.0
aF535.0
aF611.0
aF600.0
aF504.0
aF506.0
aF727.0
aF639.0
aF602.0
aF598.0
aF572.0
aF673.0
aF657.0
aF588.0
aF525.0
aF434.0
aF415.0
aF472.0
aF512.0
aF539.0
aF341.0
aF298.0
aF382.0
aF351.0
aF350.0
aF515.0
aF538.0
aF518.0
aF567.0
aF702.0
aF637.0
aF590.0
aF508.0
aF625.0
aF495.0
aF498.0
aF584.0
aF524.0
aF678.0
aF523.0
aF506.0
aF441.0
aF376.0
aF500.0
aF457.0
aF535.0
aF602.0
aF560.0
aF447.0
aF278.0
aF284.0
aF375.0
aF426.0
aF526.0
aF392.0
aF462.0
aF448.0
aF551.0
aF530.0
aF312.0
aF328.0
aF149.0
aF286.0
aF465.0
aF295.0
aF394.0
aF320.0
aF367.0
aF245.0
aF403.0
aF514.0
aF431.0
aF501.0
aF285.0
aF461.0
aF426.0
aF477.0
aF363.0
aF537.0
aF743.0
aF594.0
aF552.0
aF518.0
aF469.0
aF232.0
aF410.0
aF428.0
aF616.0
aF640.0
aF545.0
aF558.0
aF631.0
aF621.0
aF693.0
aF639.0
aF502.0
aF506.0
aF492.0
aF584.0
aF538.0
aF467.0
aF515.0
aF408.0
aF458.0
aF444.0
aF509.0
aF557.0
aF539.0
aF650.0
aF537.0
aF584.0
aF655.0
aF645.0
aF644.0
aF659.0
aF596.0
aF566.0
aF304.0
aF522.0
aF372.0
aF442.0
aF348.0
aF395.0
aF478.0
aF535.0
aF463.0
aF349.0
aF500.0
aF575.0
aF508.0
aF582.0
aF301.0
aF380.0
aF288.0
aF243.0
aF298.0
aF300.0
aF408.0
aF417.0
aF438.0
aF382.0
aF326.0
aF350.0
aF378.0
aF434.0
aF562.0
aF365.0
aF262.0
aF285.0
aF455.0
aF423.0
aF284.0
aF224.0
aF336.0
aF260.0
aF419.0
aF662.0
aF690.0
aF723.0
aF614.0
aF472.0
aF273.0
aF482.0
aF528.0
aF575.0
aF531.0
aF375.0
aF426.0
aF509.0
aF415.0
aF352.0
aF525.0
aF554.0
aF583.0
aF542.0
aF552.0
aF596.0
aF495.0
aF509.0
aF525.0
aF435.0
aF233.0
aF338.0
aF347.0
aF416.0
aF573.0
aF712.0
aF519.0
aF671.0
aF570.0
aF623.0
aF615.0
aF348.0
aF367.0
aF487.0
aF456.0
aF618.0
aF581.0
aF315.0
aF315.0
aF468.0
aF486.0
aF500.0
aF555.0
aF428.0
aF376.0
aF500.0
aF261.0
aF385.0
aF540.0
aF651.0
aF569.0
aF602.0
aF662.0
aF593.0
aF385.0
aF361.0
aF281.0
aF471.0
aF596.0
aF633.0
aF595.0
aF640.0
aF654.0
aF601.0
aF405.0
aF370.0
aF346.0
aF300.0
aF336.0
aF300.0
aF379.0
aF338.0
aF365.0
aF374.0
aF395.0
aF561.0
aF941.0
aF941.0
aF930.0
aF936.0
aF940.0
aF936.0
aF930.0
aF941.0
aF942.0
aF941.0
aF941.0
aF941.0
aF941.0
aF941.0
aF941.0
aF935.0
aF941.0
aF934.0
aF945.0
aF941.0
aF941.0
aF936.0
aF940.0
aF939.0
aF941.0
aF939.0
aF941.0
aF936.0
aF941.0
aF941.0
aF941.0
aF941.0
aF941.0
aF941.0
aF941.0
aF941.0
aF936.0
aF941.0
aF941.0
aF941.0
aF941.0
aF941.0
aF941.0
aF941.0
aF941.0
aF941.0
aF941.0
aF941.0
aF941.0
aF941.0
aF941.0
aF941.0
aF941.0
aF941.0
aF941.0
aF941.0
aF941.0
aF942.0
aF941.0
aF941.0
aF941.0
aF941.0
aF936.0
aF941.0
aF941.0
aF941.0
aF941.0
aF941.0
aF941.0
aF941.0
aF941.0
aF941.0
aF941.0
aF941.0
aF941.0
aF941.0
aF940.0
aF941.0
aF941.0
aF941.0
aF941.0
aF941.0
aF939.0
aF938.0
aF941.0
aF941.0
aF941.0
aF939.0
aF940.0
aF941.0
aF942.0
aF941.0
aF941.0
aF941.0
aF941.0
aF941.0
aF940.0
aF941.0
aF941.0
aF941.0
aF941.0
aF940.0
aF941.0
aF941.0
aF941.0
aF941.0
aF941.0
aF941.0
aF941.0
aF941.0
aF941.0
aF941.0
aF937.0
aF941.0
aF941.0
aF941.0
aF941.0
aF940.0
aF941.0
aF941.0
aF941.0
aF941.0
aF941.0
aF941.0
aF941.0
aF941.0
aF941.0
aF941.0
aF941.0
aF941.0
aF941.0
aF941.0
aF941.0
aF941.0
aF941.0
aF941.0
aF941.0
aF940.0
aF941.0
aF941.0
aF941.0
aF941.0
aF935.0
aF942.0
aF941.0
aF941.0
aF941.0
aF935.0
aF941.0
aF941.0
aF941.0
aF941.0
aF941.0
aF940.0
aF941.0
aF941.0
aF941.0
aF941.0
aF941.0
aF941.0
aF941.0
aF941.0
aF941.0
aF941.0
aF941.0
aF941.0
aF941.0
aF941.0
aF941.0
aF941.0
aF941.0
aF941.0
aF938.0
aF940.0
aF941.0
aF941.0
aF941.0
aF933.0
aF935.0
aF941.0
aF941.0
aF941.0
aF942.0
aF941.0
aF941.0
aF941.0
aF904.0
aF923.0
aF938.0
aF930.0
aF941.0
aF941.0
aF939.0
aF939.0
aF941.0
aF941.0
aF941.0
aF936.0
aF940.0
aF941.0
aF941.0
aF941.0
aF935.0
aF941.0
aF941.0
aF941.0
aF941.0
aF941.0
aF941.0
aF941.0
aF941.0
aF941.0
aF941.0
aF941.0
aF941.0
aF941.0
aF941.0
aF941.0
aF941.0
aF941.0
aF942.0
aF941.0
aF941.0
aF941.0
aF941.0
aF941.0
aF941.0
aF941.0
aF940.0
aF941.0
aF941.0
aF941.0
aF940.0
aF941.0
aF941.0
aF941.0
aF941.0
aF941.0
aF941.0
aF941.0
aF941.0
aF941.0
aF941.0
aF941.0
aF942.0
aF941.0
aF941.0
aF941.0
aF941.0
aF941.0
aF941.0
aF941.0
aF941.0
aF941.0
aF941.0
aF941.0
aF941.0
aF941.0
aF941.0
aF941.0
aF941.0
aF941.0
aF936.0
aF941.0
aF941.0
aF941.0
aF941.0
aF938.0
aF941.0
aF941.0
a.