(lp0
I0
aF439.0
aF155.0
aF206.0
aF248.0
aF245.0
aF213.0
aF179.0
aF208.0
aF255.0
aF263.0
aF269.0
aF298.0
aF240.0
aF177.0
aF202.0
aF257.0
aF206.0
aF318.0
aF283.0
aF244.0
aF254.0
aF416.0
aF335.0
aF254.0
aF250.0
aF208.0
aF174.0
aF210.0
aF240.0
aF202.0
aF218.0
aF150.0
aF232.0
aF262.0
aF250.0
aF205.0
aF235.0
aF182.0
aF253.0
aF327.0
aF197.0
aF200.0
aF243.0
aF238.0
aF228.0
aF268.0
aF218.0
aF190.0
aF197.0
aF162.0
aF184.0
aF283.0
aF236.0
aF247.0
aF190.0
aF235.0
aF197.0
aF275.0
aF208.0
aF272.0
aF305.0
aF139.0
aF179.0
aF175.0
aF183.0
aF206.0
aF255.0
aF265.0
aF191.0
aF284.0
aF217.0
aF199.0
aF210.0
aF262.0
aF240.0
aF192.0
aF236.0
aF236.0
aF183.0
aF288.0
aF325.0
aF272.0
aF181.0
aF213.0
aF231.0
aF338.0
aF193.0
aF298.0
aF299.0
aF228.0
aF239.0
aF216.0
aF260.0
aF225.0
aF280.0
aF273.0
aF260.0
aF296.0
aF305.0
aF174.0
aF268.0
aF253.0
aF274.0
aF318.0
aF214.0
aF217.0
aF223.0
aF219.0
aF277.0
aF233.0
aF239.0
aF259.0
aF156.0
aF199.0
aF247.0
aF327.0
aF329.0
aF283.0
aF255.0
aF185.0
aF214.0
aF262.0
aF216.0
aF201.0
aF236.0
aF179.0
aF294.0
aF237.0
aF178.0
aF192.0
aF346.0
aF347.0
aF230.0
aF136.0
aF258.0
aF279.0
aF275.0
aF319.0
aF231.0
aF244.0
aF162.0
aF180.0
aF250.0
aF190.0
aF189.0
aF246.0
aF240.0
aF211.0
aF150.0
aF181.0
aF197.0
aF230.0
aF299.0
aF262.0
aF259.0
aF333.0
aF220.0
aF272.0
aF270.0
aF174.0
aF252.0
aF275.0
aF329.0
aF297.0
aF254.0
aF261.0
aF136.0
aF272.0
aF233.0
aF233.0
aF216.0
aF198.0
aF323.0
aF208.0
aF310.0
aF224.0
aF268.0
aF374.0
aF223.0
aF187.0
aF203.0
aF269.0
aF332.0
aF198.0
aF167.0
aF261.0
aF273.0
aF264.0
aF185.0
aF285.0
aF286.0
aF323.0
aF229.0
aF213.0
aF294.0
aF225.0
aF199.0
aF188.0
aF176.0
aF237.0
aF181.0
aF224.0
aF253.0
aF176.0
aF198.0
aF227.0
aF237.0
aF284.0
aF156.0
aF232.0
aF186.0
aF159.0
aF159.0
aF206.0
aF325.0
aF222.0
aF249.0
aF208.0
aF244.0
aF225.0
aF266.0
aF236.0
aF268.0
aF264.0
aF353.0
aF230.0
aF195.0
aF303.0
aF234.0
aF172.0
aF169.0
aF182.0
aF194.0
aF180.0
aF286.0
aF207.0
aF187.0
aF224.0
aF221.0
aF249.0
aF283.0
aF238.0
aF270.0
aF152.0
aF190.0
aF262.0
aF202.0
aF225.0
aF230.0
aF226.0
aF276.0
aF209.0
aF232.0
aF146.0
aF227.0
aF242.0
aF212.0
aF296.0
aF314.0
aF362.0
aF247.0
aF189.0
aF199.0
aF188.0
aF269.0
aF279.0
aF171.0
aF189.0
aF198.0
aF230.0
aF239.0
aF182.0
aF256.0
aF228.0
aF256.0
aF321.0
aF236.0
aF198.0
aF188.0
aF316.0
aF170.0
aF208.0
aF383.0
aF190.0
aF143.0
aF195.0
aF205.0
aF165.0
aF235.0
aF197.0
aF217.0
aF122.0
aF225.0
aF232.0
aF225.0
aF256.0
aF252.0
aF234.0
aF164.0
aF240.0
aF262.0
aF275.0
aF246.0
aF201.0
aF267.0
aF337.0
aF216.0
aF178.0
aF286.0
aF254.0
aF524.0
aF495.0
aF442.0
aF401.0
aF367.0
aF433.0
aF397.0
aF326.0
aF387.0
aF372.0
aF518.0
aF578.0
aF553.0
aF522.0
aF356.0
aF584.0
aF639.0
aF623.0
aF528.0
aF560.0
aF447.0
aF213.0
aF271.0
aF188.0
aF226.0
aF360.0
aF258.0
aF286.0
aF378.0
aF466.0
aF631.0
aF591.0
aF652.0
aF451.0
aF480.0
aF740.0
aF622.0
aF540.0
aF530.0
aF552.0
aF611.0
aF589.0
aF463.0
aF322.0
aF317.0
aF232.0
aF354.0
aF413.0
aF360.0
aF454.0
aF630.0
aF597.0
aF591.0
aF538.0
aF548.0
aF510.0
aF374.0
aF196.0
aF255.0
aF344.0
aF412.0
aF388.0
aF524.0
aF482.0
aF552.0
aF588.0
aF507.0
aF441.0
aF232.0
aF465.0
aF529.0
aF520.0
aF504.0
aF402.0
aF337.0
aF424.0
aF324.0
aF260.0
aF382.0
aF504.0
aF459.0
aF448.0
aF641.0
aF509.0
aF399.0
aF439.0
aF334.0
aF319.0
aF413.0
aF463.0
aF251.0
aF272.0
aF345.0
aF320.0
aF396.0
aF268.0
aF279.0
aF357.0
aF370.0
aF510.0
aF522.0
aF484.0
aF441.0
aF392.0
aF572.0
aF633.0
aF575.0
aF589.0
aF611.0
aF464.0
aF383.0
aF433.0
aF393.0
aF241.0
aF312.0
aF340.0
aF399.0
aF347.0
aF391.0
aF487.0
aF364.0
aF415.0
aF306.0
aF338.0
aF460.0
aF466.0
aF583.0
aF449.0
aF490.0
aF433.0
aF323.0
aF393.0
aF446.0
aF617.0
aF685.0
aF588.0
aF539.0
aF409.0
aF546.0
aF484.0
aF484.0
aF426.0
aF380.0
aF614.0
aF599.0
aF758.0
aF709.0
aF496.0
aF602.0
aF559.0
aF634.0
aF576.0
aF670.0
aF587.0
aF411.0
aF531.0
aF404.0
aF653.0
aF537.0
aF486.0
aF456.0
aF568.0
aF453.0
aF234.0
aF301.0
aF406.0
aF381.0
aF460.0
aF692.0
aF559.0
aF537.0
aF372.0
aF270.0
aF388.0
aF397.0
aF309.0
aF347.0
aF227.0
aF321.0
aF375.0
aF481.0
aF418.0
aF386.0
aF386.0
aF454.0
aF435.0
aF517.0
aF498.0
aF485.0
aF482.0
aF341.0
aF450.0
aF282.0
aF381.0
aF376.0
aF308.0
aF296.0
aF279.0
aF297.0
aF321.0
aF357.0
aF606.0
aF455.0
aF546.0
aF517.0
aF558.0
aF586.0
aF465.0
aF423.0
aF427.0
aF610.0
aF477.0
aF357.0
aF442.0
aF345.0
aF589.0
aF576.0
aF641.0
aF694.0
aF654.0
aF648.0
aF543.0
aF522.0
aF501.0
aF567.0
aF614.0
aF568.0
aF583.0
aF539.0
aF401.0
aF495.0
aF699.0
aF667.0
aF528.0
aF510.0
aF580.0
aF767.0
aF604.0
aF642.0
aF600.0
aF331.0
aF242.0
aF198.0
aF325.0
aF402.0
aF673.0
aF505.0
aF434.0
aF362.0
aF362.0
aF573.0
aF513.0
aF448.0
aF509.0
aF596.0
aF437.0
aF381.0
aF397.0
aF361.0
aF399.0
aF341.0
aF432.0
aF444.0
aF420.0
aF457.0
aF686.0
aF643.0
aF593.0
aF523.0
aF448.0
aF196.0
aF402.0
aF313.0
aF345.0
aF339.0
aF312.0
aF539.0
aF580.0
aF479.0
aF492.0
aF352.0
aF323.0
aF586.0
aF634.0
aF527.0
aF418.0
aF462.0
aF398.0
aF468.0
aF593.0
aF447.0
aF622.0
aF611.0
aF428.0
aF286.0
aF368.0
aF370.0
aF274.0
aF317.0
aF511.0
aF577.0
aF682.0
aF492.0
aF358.0
aF330.0
aF311.0
aF342.0
aF278.0
aF337.0
aF548.0
aF941.0
aF941.0
aF941.0
aF941.0
aF941.0
aF941.0
aF941.0
aF941.0
aF941.0
aF941.0
aF941.0
aF941.0
aF941.0
aF941.0
aF941.0
aF941.0
aF941.0
aF941.0
aF941.0
aF941.0
aF941.0
aF941.0
aF940.0
aF941.0
aF941.0
aF941.0
aF941.0
aF941.0
aF941.0
aF941.0
aF941.0
aF941.0
aF941.0
aF941.0
aF941.0
aF941.0
aF941.0
aF941.0
aF941.0
aF941.0
aF941.0
aF941.0
aF941.0
aF941.0
aF941.0
aF941.0
aF941.0
aF941.0
aF941.0
aF941.0
aF941.0
aF941.0
aF941.0
aF941.0
aF941.0
aF941.0
aF941.0
aF941.0
aF941.0
aF941.0
aF941.0
aF941.0
aF941.0
aF941.0
aF941.0
aF941.0
aF941.0
aF941.0
aF941.0
aF941.0
aF941.0
aF941.0
aF941.0
aF941.0
aF941.0
aF941.0
aF941.0
aF941.0
aF941.0
aF941.0
aF941.0
aF941.0
aF941.0
aF941.0
aF941.0
aF941.0
aF941.0
aF941.0
aF942.0
aF941.0
aF941.0
aF941.0
aF941.0
aF941.0
aF941.0
aF941.0
aF942.0
aF941.0
aF941.0
aF941.0
aF941.0
aF941.0
aF941.0
aF941.0
aF941.0
aF941.0
aF941.0
aF941.0
aF941.0
aF941.0
aF941.0
aF941.0
aF941.0
aF941.0
aF941.0
aF941.0
aF941.0
aF941.0
aF941.0
aF941.0
aF941.0
aF941.0
aF941.0
aF941.0
aF941.0
aF941.0
aF941.0
aF941.0
aF941.0
aF941.0
aF941.0
aF941.0
aF938.0
aF941.0
aF941.0
aF941.0
aF941.0
aF941.0
aF941.0
aF941.0
aF941.0
aF941.0
aF941.0
aF941.0
aF941.0
aF941.0
aF941.0
aF941.0
aF941.0
aF941.0
aF941.0
aF941.0
aF939.0
aF941.0
aF941.0
aF941.0
aF941.0
aF941.0
aF941.0
aF941.0
aF941.0
aF941.0
aF941.0
aF941.0
aF941.0
aF941.0
aF941.0
aF941.0
aF941.0
aF941.0
aF941.0
aF941.0
aF941.0
aF941.0
aF941.0
aF941.0
aF941.0
aF941.0
aF941.0
aF941.0
aF941.0
aF941.0
aF941.0
aF941.0
aF941.0
aF941.0
aF941.0
aF941.0
aF941.0
aF941.0
aF941.0
aF941.0
aF941.0
aF941.0
aF941.0
aF941.0
aF941.0
aF941.0
aF941.0
aF941.0
aF941.0
aF941.0
aF941.0
aF941.0
aF941.0
aF941.0
aF941.0
aF941.0
aF941.0
aF941.0
aF941.0
aF941.0
aF941.0
aF941.0
aF941.0
aF938.0
aF945.0
aF941.0
aF941.0
aF941.0
aF941.0
aF941.0
aF941.0
aF941.0
aF941.0
aF941.0
aF941.0
aF941.0
aF941.0
aF941.0
aF941.0
aF941.0
aF941.0
aF941.0
aF941.0
aF941.0
aF941.0
aF941.0
aF941.0
aF941.0
aF941.0
aF941.0
aF941.0
aF941.0
aF941.0
aF941.0
aF941.0
aF941.0
aF941.0
aF941.0
aF941.0
aF941.0
aF941.0
aF941.0
aF941.0
aF941.0
aF941.0
aF941.0
aF941.0
aF941.0
aF941.0
aF941.0
aF941.0
aF941.0
aF941.0
aF941.0
aF941.0
aF941.0
aF941.0
aF941.0
aF941.0
aF941.0
aF939.0
aF943.0
aF941.0
aF941.0
aF941.0
aF941.0
aF941.0
aF941.0
aF941.0
a.