(lp0
I0
aF344.0
aF225.0
aF232.0
aF255.0
aF280.0
aF234.0
aF216.0
aF177.0
aF166.0
aF223.0
aF319.0
aF348.0
aF258.0
aF299.0
aF273.0
aF275.0
aF189.0
aF225.0
aF216.0
aF216.0
aF187.0
aF284.0
aF223.0
aF241.0
aF250.0
aF225.0
aF223.0
aF171.0
aF185.0
aF287.0
aF311.0
aF170.0
aF229.0
aF255.0
aF235.0
aF255.0
aF231.0
aF158.0
aF162.0
aF144.0
aF252.0
aF307.0
aF224.0
aF201.0
aF242.0
aF260.0
aF238.0
aF284.0
aF227.0
aF188.0
aF236.0
aF183.0
aF323.0
aF300.0
aF211.0
aF189.0
aF219.0
aF262.0
aF278.0
aF225.0
aF201.0
aF261.0
aF283.0
aF222.0
aF253.0
aF249.0
aF201.0
aF161.0
aF161.0
aF276.0
aF212.0
aF175.0
aF282.0
aF279.0
aF279.0
aF259.0
aF290.0
aF206.0
aF241.0
aF206.0
aF215.0
aF347.0
aF310.0
aF320.0
aF190.0
aF132.0
aF210.0
aF255.0
aF354.0
aF334.0
aF315.0
aF354.0
aF293.0
aF193.0
aF263.0
aF340.0
aF358.0
aF267.0
aF151.0
aF193.0
aF185.0
aF201.0
aF199.0
aF177.0
aF237.0
aF206.0
aF246.0
aF244.0
aF239.0
aF250.0
aF330.0
aF216.0
aF192.0
aF236.0
aF247.0
aF225.0
aF261.0
aF317.0
aF174.0
aF302.0
aF354.0
aF316.0
aF293.0
aF211.0
aF199.0
aF242.0
aF281.0
aF299.0
aF236.0
aF268.0
aF219.0
aF220.0
aF225.0
aF206.0
aF258.0
aF281.0
aF321.0
aF327.0
aF295.0
aF157.0
aF212.0
aF173.0
aF190.0
aF192.0
aF201.0
aF188.0
aF160.0
aF267.0
aF368.0
aF337.0
aF277.0
aF217.0
aF228.0
aF268.0
aF214.0
aF151.0
aF225.0
aF385.0
aF251.0
aF225.0
aF221.0
aF380.0
aF389.0
aF197.0
aF171.0
aF267.0
aF165.0
aF190.0
aF263.0
aF329.0
aF223.0
aF260.0
aF227.0
aF236.0
aF284.0
aF232.0
aF268.0
aF243.0
aF243.0
aF271.0
aF191.0
aF224.0
aF254.0
aF220.0
aF239.0
aF348.0
aF315.0
aF190.0
aF227.0
aF175.0
aF258.0
aF260.0
aF179.0
aF251.0
aF287.0
aF188.0
aF228.0
aF183.0
aF317.0
aF221.0
aF189.0
aF237.0
aF212.0
aF177.0
aF237.0
aF258.0
aF194.0
aF183.0
aF212.0
aF224.0
aF206.0
aF194.0
aF229.0
aF277.0
aF191.0
aF187.0
aF246.0
aF146.0
aF173.0
aF171.0
aF251.0
aF356.0
aF367.0
aF315.0
aF274.0
aF247.0
aF241.0
aF214.0
aF272.0
aF273.0
aF322.0
aF254.0
aF202.0
aF233.0
aF240.0
aF288.0
aF247.0
aF198.0
aF184.0
aF320.0
aF216.0
aF231.0
aF178.0
aF203.0
aF233.0
aF224.0
aF216.0
aF268.0
aF286.0
aF290.0
aF192.0
aF214.0
aF332.0
aF365.0
aF411.0
aF259.0
aF280.0
aF315.0
aF325.0
aF252.0
aF219.0
aF266.0
aF357.0
aF254.0
aF204.0
aF253.0
aF280.0
aF290.0
aF314.0
aF188.0
aF214.0
aF205.0
aF217.0
aF347.0
aF373.0
aF251.0
aF185.0
aF177.0
aF205.0
aF206.0
aF171.0
aF203.0
aF212.0
aF183.0
aF243.0
aF203.0
aF354.0
aF328.0
aF283.0
aF274.0
aF202.0
aF166.0
aF248.0
aF199.0
aF254.0
aF221.0
aF205.0
aF242.0
aF306.0
aF283.0
aF222.0
aF378.0
aF246.0
aF172.0
aF248.0
aF201.0
aF240.0
aF236.0
aF158.0
aF258.0
aF518.0
aF581.0
aF729.0
aF707.0
aF673.0
aF538.0
aF525.0
aF573.0
aF625.0
aF503.0
aF369.0
aF245.0
aF471.0
aF518.0
aF506.0
aF404.0
aF346.0
aF377.0
aF479.0
aF440.0
aF483.0
aF360.0
aF338.0
aF466.0
aF525.0
aF486.0
aF420.0
aF403.0
aF484.0
aF458.0
aF465.0
aF640.0
aF478.0
aF259.0
aF167.0
aF335.0
aF395.0
aF505.0
aF635.0
aF555.0
aF550.0
aF380.0
aF443.0
aF551.0
aF448.0
aF555.0
aF391.0
aF231.0
aF251.0
aF375.0
aF552.0
aF596.0
aF420.0
aF305.0
aF326.0
aF493.0
aF463.0
aF372.0
aF401.0
aF336.0
aF383.0
aF544.0
aF645.0
aF582.0
aF580.0
aF582.0
aF557.0
aF662.0
aF479.0
aF399.0
aF348.0
aF552.0
aF665.0
aF549.0
aF504.0
aF491.0
aF312.0
aF417.0
aF511.0
aF680.0
aF453.0
aF382.0
aF404.0
aF420.0
aF536.0
aF679.0
aF615.0
aF513.0
aF562.0
aF658.0
aF710.0
aF785.0
aF604.0
aF489.0
aF509.0
aF453.0
aF377.0
aF492.0
aF487.0
aF406.0
aF614.0
aF651.0
aF536.0
aF533.0
aF534.0
aF442.0
aF540.0
aF390.0
aF384.0
aF362.0
aF591.0
aF534.0
aF374.0
aF424.0
aF496.0
aF653.0
aF499.0
aF583.0
aF545.0
aF609.0
aF598.0
aF647.0
aF596.0
aF534.0
aF632.0
aF609.0
aF552.0
aF592.0
aF469.0
aF227.0
aF345.0
aF368.0
aF330.0
aF289.0
aF323.0
aF435.0
aF428.0
aF374.0
aF448.0
aF556.0
aF468.0
aF547.0
aF463.0
aF399.0
aF388.0
aF424.0
aF425.0
aF491.0
aF292.0
aF338.0
aF348.0
aF377.0
aF311.0
aF445.0
aF603.0
aF526.0
aF481.0
aF433.0
aF416.0
aF378.0
aF451.0
aF601.0
aF590.0
aF524.0
aF381.0
aF352.0
aF349.0
aF324.0
aF319.0
aF351.0
aF525.0
aF357.0
aF368.0
aF446.0
aF667.0
aF652.0
aF595.0
aF680.0
aF708.0
aF625.0
aF502.0
aF481.0
aF505.0
aF423.0
aF443.0
aF342.0
aF291.0
aF329.0
aF389.0
aF370.0
aF502.0
aF487.0
aF551.0
aF568.0
aF582.0
aF554.0
aF542.0
aF611.0
aF608.0
aF501.0
aF658.0
aF523.0
aF511.0
aF560.0
aF451.0
aF458.0
aF570.0
aF546.0
aF345.0
aF426.0
aF396.0
aF441.0
aF267.0
aF325.0
aF363.0
aF551.0
aF565.0
aF556.0
aF474.0
aF413.0
aF428.0
aF483.0
aF499.0
aF481.0
aF435.0
aF523.0
aF332.0
aF321.0
aF412.0
aF427.0
aF424.0
aF472.0
aF477.0
aF541.0
aF586.0
aF406.0
aF314.0
aF359.0
aF547.0
aF639.0
aF631.0
aF617.0
aF663.0
aF574.0
aF738.0
aF633.0
aF635.0
aF525.0
aF386.0
aF326.0
aF353.0
aF381.0
aF508.0
aF636.0
aF508.0
aF459.0
aF359.0
aF446.0
aF573.0
aF584.0
aF414.0
aF385.0
aF322.0
aF290.0
aF440.0
aF361.0
aF469.0
aF720.0
aF687.0
aF512.0
aF475.0
aF503.0
aF569.0
aF398.0
aF597.0
aF734.0
aF640.0
aF472.0
aF388.0
aF267.0
aF475.0
aF504.0
aF450.0
aF548.0
aF503.0
aF457.0
aF380.0
aF404.0
aF527.0
aF432.0
aF337.0
aF337.0
aF384.0
aF431.0
aF429.0
aF455.0
aF496.0
aF423.0
aF411.0
aF357.0
aF422.0
aF430.0
aF609.0
aF570.0
aF465.0
aF377.0
aF499.0
aF713.0
aF582.0
aF498.0
aF533.0
aF943.0
aF949.0
aF942.0
aF933.0
aF942.0
aF941.0
aF942.0
aF941.0
aF942.0
aF881.0
aF768.0
aF731.0
aF734.0
aF736.0
aF702.0
aF690.0
aF765.0
aF721.0
aF733.0
aF738.0
aF700.0
aF726.0
aF750.0
aF743.0
aF749.0
aF702.0
aF753.0
aF733.0
aF713.0
aF731.0
aF729.0
aF723.0
aF725.0
aF719.0
aF768.0
aF763.0
aF750.0
aF736.0
aF720.0
aF697.0
aF713.0
aF708.0
aF741.0
aF762.0
aF749.0
aF722.0
aF740.0
aF773.0
aF740.0
aF725.0
aF689.0
aF741.0
aF751.0
aF746.0
aF719.0
aF742.0
aF741.0
aF742.0
aF748.0
aF716.0
aF721.0
aF751.0
aF752.0
aF748.0
aF765.0
aF724.0
aF741.0
aF732.0
aF722.0
aF751.0
aF706.0
aF740.0
aF745.0
aF734.0
aF739.0
aF741.0
aF734.0
aF744.0
aF764.0
aF729.0
aF690.0
aF732.0
aF751.0
aF739.0
aF755.0
aF696.0
aF731.0
aF711.0
aF726.0
aF730.0
aF700.0
aF721.0
aF709.0
aF713.0
aF729.0
aF721.0
aF731.0
aF716.0
aF757.0
aF726.0
aF697.0
aF703.0
aF748.0
aF716.0
aF721.0
aF735.0
aF734.0
aF721.0
aF719.0
aF707.0
aF728.0
aF743.0
aF731.0
aF730.0
aF736.0
aF734.0
aF725.0
aF739.0
aF712.0
aF701.0
aF705.0
aF734.0
aF721.0
aF727.0
aF734.0
aF715.0
aF720.0
aF765.0
aF753.0
aF732.0
aF741.0
aF772.0
aF734.0
aF732.0
aF750.0
aF712.0
aF735.0
aF741.0
aF734.0
aF733.0
aF706.0
aF706.0
aF758.0
aF707.0
aF719.0
aF717.0
aF744.0
aF741.0
aF747.0
aF707.0
aF728.0
aF745.0
aF719.0
aF713.0
aF730.0
aF706.0
aF735.0
aF716.0
aF744.0
aF723.0
aF715.0
aF708.0
aF729.0
aF712.0
aF717.0
aF734.0
aF725.0
aF742.0
aF723.0
aF737.0
aF727.0
aF712.0
aF744.0
aF743.0
aF738.0
aF696.0
aF721.0
aF736.0
aF759.0
aF743.0
aF730.0
aF725.0
aF748.0
aF719.0
aF747.0
aF702.0
aF754.0
aF725.0
aF694.0
aF691.0
aF718.0
aF747.0
aF705.0
aF753.0
aF739.0
aF735.0
aF731.0
aF736.0
aF730.0
aF726.0
aF740.0
aF707.0
aF768.0
aF739.0
aF739.0
aF697.0
aF720.0
aF754.0
aF744.0
aF738.0
aF724.0
aF757.0
aF750.0
aF699.0
aF679.0
aF727.0
aF725.0
aF738.0
aF732.0
aF736.0
aF713.0
aF703.0
aF755.0
aF720.0
aF710.0
aF729.0
aF703.0
aF748.0
aF750.0
aF718.0
aF727.0
aF731.0
aF731.0
aF734.0
aF719.0
aF710.0
aF724.0
aF739.0
aF733.0
aF716.0
aF715.0
aF751.0
aF727.0
aF750.0
aF728.0
aF692.0
aF694.0
aF711.0
aF727.0
aF725.0
aF731.0
aF728.0
aF754.0
aF734.0
aF784.0
aF719.0
aF721.0
aF755.0
aF773.0
aF724.0
aF716.0
aF723.0
aF720.0
aF720.0
aF764.0
aF744.0
aF740.0
aF733.0
aF743.0
aF716.0
aF728.0
aF731.0
aF735.0
aF741.0
aF715.0
aF716.0
aF715.0
aF742.0
aF720.0
a.