(lp0
I0
aF889.0
aF935.0
aF917.0
aF941.0
aF941.0
aF937.0
aF941.0
aF941.0
aF939.0
aF934.0
aF938.0
aF930.0
aF941.0
aF936.0
aF941.0
aF941.0
aF935.0
aF941.0
aF729.0
aF577.0
aF472.0
aF448.0
aF624.0
aF474.0
aF613.0
aF664.0
aF382.0
aF313.0
aF254.0
aF371.0
aF577.0
aF667.0
aF567.0
aF466.0
aF538.0
aF519.0
aF458.0
aF368.0
aF353.0
aF940.0
aF941.0
aF942.0
aF941.0
aF939.0
aF941.0
aF927.0
aF941.0
aF942.0
aF941.0
aF941.0
aF941.0
aF939.0
aF941.0
aF942.0
aF931.0
aF941.0
aF941.0
aF939.0
aF941.0
aF941.0
aF939.0
aF936.0
aF938.0
aF941.0
aF938.0
aF938.0
aF939.0
aF942.0
aF939.0
aF929.0
aF941.0
aF938.0
aF942.0
aF941.0
aF936.0
aF935.0
aF937.0
aF939.0
aF940.0
aF941.0
aF941.0
aF941.0
aF941.0
aF941.0
aF937.0
aF941.0
aF941.0
aF941.0
aF941.0
aF937.0
aF939.0
aF941.0
aF941.0
aF938.0
aF941.0
aF941.0
aF941.0
aF941.0
aF941.0
aF941.0
aF937.0
aF941.0
aF941.0
aF941.0
aF937.0
aF941.0
aF936.0
aF941.0
aF941.0
aF942.0
aF941.0
aF936.0
aF941.0
aF941.0
aF935.0
aF941.0
aF937.0
aF942.0
aF941.0
aF941.0
aF942.0
a.