(lp0
I0
aF889.0
aF934.0
aF916.0
aF941.0
aF941.0
aF941.0
aF941.0
aF941.0
aF941.0
aF934.0
aF937.0
aF930.0
aF942.0
aF929.0
aF941.0
aF940.0
aF935.0
aF941.0
aF633.0
aF363.0
aF467.0
aF497.0
aF317.0
aF467.0
aF331.0
aF276.0
aF555.0
aF627.0
aF687.0
aF573.0
aF368.0
aF272.0
aF374.0
aF472.0
aF406.0
aF423.0
aF481.0
aF572.0
aF595.0
aF939.0
aF940.0
aF932.0
aF941.0
aF939.0
aF941.0
aF923.0
aF937.0
aF941.0
aF941.0
aF938.0
aF941.0
aF933.0
aF941.0
aF941.0
aF934.0
aF941.0
aF931.0
aF932.0
aF939.0
aF941.0
aF941.0
aF939.0
aF941.0
aF938.0
aF941.0
aF940.0
aF935.0
aF942.0
aF941.0
aF933.0
aF941.0
aF936.0
aF941.0
aF941.0
aF941.0
aF930.0
aF937.0
aF941.0
aF937.0
aF942.0
aF941.0
aF935.0
aF938.0
aF941.0
aF936.0
aF941.0
aF941.0
aF941.0
aF937.0
aF941.0
aF938.0
aF931.0
aF941.0
aF936.0
aF936.0
aF934.0
aF941.0
aF941.0
aF941.0
aF941.0
aF936.0
aF937.0
aF941.0
aF941.0
aF937.0
aF936.0
aF935.0
aF941.0
aF941.0
aF941.0
aF942.0
aF930.0
aF941.0
aF941.0
aF934.0
aF936.0
aF936.0
aF941.0
aF942.0
aF935.0
aF940.0
a.