(lp0
I0
aF219.0
aF249.0
aF212.0
aF199.0
aF245.0
aF203.0
aF202.0
aF315.0
aF215.0
aF240.0
aF254.0
aF275.0
aF285.0
aF165.0
aF268.0
aF181.0
aF302.0
aF268.0
aF243.0
aF239.0
aF238.0
aF299.0
aF231.0
aF164.0
aF272.0
aF237.0
aF234.0
aF163.0
aF209.0
aF251.0
aF236.0
aF229.0
aF330.0
aF228.0
aF184.0
aF152.0
aF188.0
aF241.0
aF199.0
aF234.0
aF197.0
aF197.0
aF263.0
aF209.0
aF210.0
aF267.0
aF220.0
aF268.0
aF187.0
aF191.0
aF225.0
aF181.0
aF232.0
aF361.0
aF179.0
aF250.0
aF260.0
aF175.0
aF221.0
aF243.0
aF339.0
aF291.0
aF197.0
aF181.0
aF210.0
aF291.0
aF260.0
aF229.0
aF266.0
aF214.0
aF215.0
aF259.0
aF212.0
aF188.0
aF217.0
aF168.0
aF308.0
aF334.0
aF290.0
aF221.0
aF362.0
aF279.0
aF294.0
aF230.0
aF146.0
aF203.0
aF249.0
aF154.0
aF154.0
aF170.0
aF166.0
aF197.0
aF144.0
aF151.0
aF241.0
aF144.0
aF240.0
aF290.0
aF216.0
aF126.0
aF194.0
aF153.0
aF200.0
aF210.0
aF149.0
aF140.0
aF195.0
aF173.0
aF181.0
aF270.0
aF248.0
aF173.0
aF209.0
aF255.0
aF211.0
aF145.0
aF222.0
aF280.0
aF243.0
aF215.0
aF209.0
aF274.0
aF262.0
aF197.0
aF222.0
aF296.0
aF167.0
aF178.0
aF248.0
aF354.0
aF271.0
aF185.0
aF233.0
aF227.0
aF274.0
aF312.0
aF359.0
aF399.0
aF259.0
aF313.0
aF297.0
aF236.0
aF162.0
aF260.0
aF254.0
aF271.0
aF199.0
aF252.0
aF238.0
aF296.0
aF158.0
aF266.0
aF206.0
aF204.0
aF296.0
aF201.0
aF343.0
aF265.0
aF229.0
aF281.0
aF179.0
aF280.0
aF252.0
aF275.0
aF378.0
aF185.0
aF202.0
aF243.0
aF248.0
aF257.0
aF271.0
aF283.0
aF250.0
aF202.0
aF322.0
aF237.0
aF168.0
aF215.0
aF285.0
aF219.0
aF360.0
aF259.0
aF165.0
aF211.0
aF261.0
aF200.0
aF202.0
aF265.0
aF213.0
aF253.0
aF351.0
aF297.0
aF218.0
aF244.0
aF234.0
aF288.0
aF229.0
aF241.0
aF211.0
aF243.0
aF237.0
aF280.0
aF182.0
aF173.0
aF185.0
aF208.0
aF209.0
aF236.0
aF220.0
aF214.0
aF199.0
aF254.0
aF265.0
aF201.0
aF231.0
aF237.0
aF195.0
aF210.0
aF336.0
aF184.0
aF173.0
aF261.0
aF346.0
aF337.0
aF300.0
aF217.0
aF263.0
aF216.0
aF217.0
aF254.0
aF291.0
aF232.0
aF298.0
aF351.0
aF297.0
aF217.0
aF203.0
aF293.0
aF268.0
aF289.0
aF186.0
aF225.0
aF208.0
aF249.0
aF283.0
aF220.0
aF218.0
aF168.0
aF251.0
aF240.0
aF253.0
aF271.0
aF255.0
aF297.0
aF203.0
aF205.0
aF230.0
aF195.0
aF194.0
aF204.0
aF180.0
aF298.0
aF287.0
aF273.0
aF268.0
aF216.0
aF200.0
aF174.0
aF185.0
aF214.0
aF201.0
aF177.0
aF189.0
aF310.0
aF201.0
aF215.0
aF334.0
aF229.0
aF227.0
aF229.0
aF262.0
aF240.0
aF283.0
aF340.0
aF252.0
aF284.0
aF222.0
aF193.0
aF169.0
aF278.0
aF216.0
aF177.0
aF291.0
aF229.0
aF222.0
aF307.0
aF219.0
aF225.0
aF189.0
aF232.0
aF112.0
aF253.0
aF229.0
aF205.0
aF183.0
aF205.0
aF158.0
aF201.0
aF333.0
aF267.0
aF296.0
aF304.0
aF197.0
aF420.0
aF469.0
aF504.0
aF384.0
aF430.0
aF474.0
aF453.0
aF578.0
aF501.0
aF470.0
aF529.0
aF502.0
aF353.0
aF364.0
aF517.0
aF630.0
aF444.0
aF457.0
aF433.0
aF442.0
aF410.0
aF310.0
aF433.0
aF566.0
aF521.0
aF530.0
aF514.0
aF516.0
aF629.0
aF586.0
aF435.0
aF421.0
aF422.0
aF546.0
aF413.0
aF374.0
aF436.0
aF523.0
aF546.0
aF457.0
aF313.0
aF301.0
aF473.0
aF461.0
aF553.0
aF390.0
aF392.0
aF398.0
aF390.0
aF566.0
aF610.0
aF575.0
aF558.0
aF438.0
aF385.0
aF481.0
aF570.0
aF675.0
aF732.0
aF559.0
aF598.0
aF555.0
aF511.0
aF456.0
aF342.0
aF383.0
aF385.0
aF487.0
aF454.0
aF357.0
aF283.0
aF417.0
aF386.0
aF293.0
aF459.0
aF508.0
aF602.0
aF530.0
aF425.0
aF372.0
aF344.0
aF407.0
aF478.0
aF443.0
aF517.0
aF407.0
aF299.0
aF341.0
aF402.0
aF350.0
aF428.0
aF472.0
aF499.0
aF362.0
aF428.0
aF416.0
aF350.0
aF399.0
aF560.0
aF735.0
aF668.0
aF607.0
aF667.0
aF542.0
aF485.0
aF495.0
aF549.0
aF661.0
aF499.0
aF349.0
aF413.0
aF389.0
aF349.0
aF381.0
aF295.0
aF392.0
aF423.0
aF317.0
aF376.0
aF436.0
aF438.0
aF454.0
aF457.0
aF506.0
aF607.0
aF524.0
aF465.0
aF231.0
aF291.0
aF420.0
aF566.0
aF422.0
aF445.0
aF388.0
aF413.0
aF521.0
aF553.0
aF388.0
aF507.0
aF543.0
aF436.0
aF360.0
aF359.0
aF470.0
aF434.0
aF403.0
aF459.0
aF397.0
aF404.0
aF397.0
aF499.0
aF448.0
aF314.0
aF422.0
aF528.0
aF456.0
aF388.0
aF437.0
aF270.0
aF161.0
aF278.0
aF251.0
aF226.0
aF427.0
aF452.0
aF471.0
aF414.0
aF384.0
aF359.0
aF436.0
aF544.0
aF364.0
aF469.0
aF444.0
aF395.0
aF339.0
aF459.0
aF530.0
aF497.0
aF490.0
aF550.0
aF544.0
aF561.0
aF456.0
aF335.0
aF396.0
aF390.0
aF428.0
aF310.0
aF495.0
aF497.0
aF473.0
aF476.0
aF478.0
aF558.0
aF630.0
aF541.0
aF403.0
aF349.0
aF411.0
aF564.0
aF361.0
aF302.0
aF450.0
aF353.0
aF386.0
aF330.0
aF320.0
aF419.0
aF528.0
aF486.0
aF508.0
aF450.0
aF289.0
aF254.0
aF277.0
aF481.0
aF569.0
aF499.0
aF378.0
aF420.0
aF578.0
aF588.0
aF487.0
aF349.0
aF367.0
aF487.0
aF388.0
aF427.0
aF450.0
aF349.0
aF378.0
aF437.0
aF424.0
aF301.0
aF457.0
aF395.0
aF336.0
aF237.0
aF386.0
aF503.0
aF586.0
aF715.0
aF668.0
aF569.0
aF639.0
aF434.0
aF325.0
aF391.0
aF481.0
aF443.0
aF456.0
aF439.0
aF423.0
aF493.0
aF545.0
aF398.0
aF433.0
aF514.0
aF489.0
aF501.0
aF535.0
aF483.0
aF481.0
aF577.0
aF568.0
aF562.0
aF427.0
aF467.0
aF506.0
aF439.0
aF344.0
aF595.0
aF404.0
aF346.0
aF497.0
aF727.0
aF569.0
aF553.0
aF580.0
aF656.0
aF530.0
aF463.0
aF553.0
aF544.0
aF399.0
aF389.0
aF379.0
aF579.0
aF473.0
aF530.0
aF508.0
aF544.0
aF626.0
aF699.0
aF659.0
aF371.0
aF389.0
aF475.0
aF381.0
aF379.0
aF469.0
aF452.0
aF573.0
aF564.0
aF426.0
aF465.0
aF449.0
aF249.0
aF307.0
aF316.0
aF329.0
aF260.0
aF350.0
aF287.0
aF337.0
aF303.0
aF324.0
aF768.0
aF784.0
aF745.0
aF744.0
aF774.0
aF736.0
aF739.0
aF777.0
aF723.0
aF745.0
aF727.0
aF758.0
aF766.0
aF732.0
aF768.0
aF757.0
aF768.0
aF744.0
aF749.0
aF720.0
aF745.0
aF766.0
aF719.0
aF727.0
aF740.0
aF725.0
aF709.0
aF750.0
aF711.0
aF735.0
aF765.0
aF777.0
aF723.0
aF717.0
aF743.0
aF748.0
aF760.0
aF765.0
aF751.0
aF745.0
aF725.0
aF754.0
aF754.0
aF729.0
aF745.0
aF745.0
aF769.0
aF762.0
aF748.0
aF716.0
aF738.0
aF726.0
aF771.0
aF769.0
aF729.0
aF724.0
aF757.0
aF742.0
aF763.0
aF749.0
aF753.0
aF756.0
aF765.0
aF764.0
aF759.0
aF744.0
aF757.0
aF749.0
aF726.0
aF778.0
aF789.0
aF775.0
aF738.0
aF762.0
aF751.0
aF738.0
aF737.0
aF741.0
aF722.0
aF734.0
aF738.0
aF735.0
aF759.0
aF755.0
aF762.0
aF781.0
aF758.0
aF760.0
aF734.0
aF738.0
aF727.0
aF742.0
aF766.0
aF727.0
aF770.0
aF780.0
aF738.0
aF790.0
aF786.0
aF762.0
aF752.0
aF778.0
aF782.0
aF738.0
aF733.0
aF734.0
aF742.0
aF756.0
aF785.0
aF743.0
aF794.0
aF776.0
aF755.0
aF741.0
aF737.0
aF709.0
aF734.0
aF761.0
aF741.0
aF754.0
aF767.0
aF744.0
aF736.0
aF767.0
aF776.0
aF768.0
aF775.0
aF756.0
aF750.0
aF771.0
aF795.0
aF794.0
aF742.0
aF747.0
aF739.0
aF758.0
aF734.0
aF726.0
aF748.0
aF768.0
aF788.0
aF772.0
aF805.0
aF784.0
aF767.0
aF766.0
aF727.0
aF724.0
aF748.0
aF748.0
aF775.0
aF749.0
aF751.0
aF741.0
aF729.0
aF750.0
aF745.0
aF763.0
aF786.0
aF740.0
aF747.0
aF782.0
aF763.0
aF769.0
aF745.0
aF749.0
aF768.0
aF722.0
aF753.0
aF764.0
aF746.0
aF765.0
aF794.0
aF786.0
aF753.0
aF732.0
aF724.0
aF741.0
aF736.0
aF759.0
aF759.0
aF770.0
aF781.0
aF760.0
aF749.0
aF749.0
aF754.0
aF730.0
aF768.0
aF743.0
aF725.0
aF765.0
aF730.0
aF763.0
aF732.0
aF731.0
aF724.0
aF771.0
aF799.0
aF773.0
aF734.0
aF739.0
aF754.0
aF753.0
aF730.0
aF730.0
aF770.0
aF716.0
aF749.0
aF751.0
aF742.0
aF798.0
aF773.0
aF752.0
aF761.0
aF725.0
aF727.0
aF731.0
aF737.0
aF724.0
aF755.0
aF786.0
aF749.0
aF749.0
aF740.0
aF748.0
aF724.0
aF766.0
aF758.0
aF705.0
aF776.0
aF781.0
aF795.0
aF801.0
aF753.0
aF714.0
aF751.0
aF796.0
aF742.0
aF799.0
aF807.0
aF782.0
aF791.0
aF739.0
aF723.0
aF763.0
aF766.0
aF774.0
aF756.0
aF764.0
aF770.0
aF809.0
aF788.0
aF749.0
aF764.0
aF736.0
aF748.0
aF797.0
aF779.0
aF759.0
aF757.0
aF760.0
aF752.0
aF772.0
aF744.0
aF770.0
aF734.0
aF785.0
aF767.0
a.