(lp0
I0
aF588.0
aF595.0
aF533.0
aF538.0
aF584.0
aF600.0
aF635.0
aF607.0
aF508.0
aF509.0
aF626.0
aF601.0
aF630.0
aF520.0
aF504.0
aF456.0
aF471.0
aF378.0
aF406.0
aF426.0
aF437.0
aF436.0
aF496.0
aF518.0
aF537.0
aF525.0
aF539.0
aF470.0
aF673.0
aF544.0
aF516.0
aF503.0
aF456.0
aF533.0
aF581.0
aF434.0
aF403.0
aF338.0
aF369.0
aF327.0
aF428.0
aF516.0
aF430.0
aF526.0
aF532.0
aF490.0
aF317.0
aF334.0
aF406.0
aF562.0
aF421.0
aF449.0
aF575.0
aF418.0
aF300.0
aF365.0
aF475.0
aF420.0
aF482.0
aF526.0
aF616.0
aF610.0
aF594.0
aF531.0
aF507.0
aF622.0
aF523.0
aF419.0
aF369.0
aF541.0
aF523.0
aF620.0
aF530.0
aF515.0
aF564.0
aF414.0
aF414.0
aF426.0
aF402.0
aF496.0
aF493.0
aF512.0
aF499.0
aF510.0
aF525.0
aF514.0
aF411.0
aF468.0
aF452.0
aF369.0
aF474.0
aF592.0
aF503.0
aF547.0
aF396.0
aF419.0
aF551.0
aF587.0
aF524.0
aF515.0
aF427.0
aF516.0
aF625.0
aF536.0
aF490.0
aF464.0
aF437.0
aF555.0
aF527.0
aF553.0
aF674.0
aF546.0
aF479.0
aF394.0
aF459.0
aF502.0
aF447.0
aF440.0
aF467.0
aF429.0
aF460.0
aF544.0
aF621.0
aF576.0
aF509.0
aF491.0
aF531.0
aF414.0
aF830.0
aF942.0
aF941.0
aF941.0
aF941.0
aF941.0
aF941.0
aF941.0
aF941.0
aF941.0
aF941.0
aF941.0
aF941.0
aF941.0
aF941.0
aF941.0
aF941.0
aF941.0
aF941.0
aF941.0
aF941.0
aF941.0
aF942.0
aF939.0
aF941.0
aF941.0
aF941.0
aF941.0
aF930.0
aF946.0
aF925.0
aF941.0
aF941.0
aF941.0
aF941.0
aF941.0
aF941.0
aF941.0
aF941.0
aF915.0
aF939.0
aF941.0
aF941.0
aF941.0
aF941.0
aF941.0
aF941.0
aF941.0
aF941.0
aF941.0
aF941.0
aF941.0
aF941.0
aF941.0
aF941.0
aF941.0
aF941.0
aF941.0
aF941.0
aF942.0
aF941.0
aF941.0
aF941.0
aF941.0
aF941.0
aF941.0
aF941.0
aF941.0
aF941.0
aF941.0
aF941.0
aF941.0
aF941.0
aF941.0
aF941.0
aF941.0
aF941.0
aF941.0
aF941.0
aF941.0
aF941.0
aF941.0
aF941.0
aF941.0
aF941.0
aF941.0
aF941.0
aF941.0
aF941.0
aF941.0
aF941.0
aF941.0
aF941.0
aF941.0
aF941.0
aF941.0
aF941.0
aF941.0
aF941.0
aF941.0
aF941.0
aF941.0
aF941.0
aF941.0
aF941.0
aF941.0
aF941.0
aF941.0
aF941.0
aF941.0
aF941.0
aF941.0
aF942.0
a.