(lp0
I0
aF309.0
aF325.0
aF318.0
aF312.0
aF286.0
aF294.0
aF299.0
aF296.0
aF363.0
aF385.0
aF275.0
aF244.0
aF294.0
aF340.0
aF364.0
aF369.0
aF404.0
aF502.0
aF448.0
aF422.0
aF437.0
aF416.0
aF369.0
aF322.0
aF328.0
aF314.0
aF312.0
aF344.0
aF253.0
aF336.0
aF359.0
aF390.0
aF413.0
aF312.0
aF314.0
aF447.0
aF495.0
aF493.0
aF498.0
aF571.0
aF477.0
aF389.0
aF317.0
aF388.0
aF324.0
aF360.0
aF538.0
aF569.0
aF439.0
aF298.0
aF426.0
aF446.0
aF315.0
aF432.0
aF599.0
aF500.0
aF437.0
aF424.0
aF353.0
aF366.0
aF318.0
aF290.0
aF303.0
aF319.0
aF389.0
aF282.0
aF339.0
aF401.0
aF508.0
aF311.0
aF315.0
aF285.0
aF315.0
aF381.0
aF363.0
aF385.0
aF432.0
aF469.0
aF447.0
aF388.0
aF390.0
aF350.0
aF421.0
aF372.0
aF345.0
aF383.0
aF449.0
aF390.0
aF442.0
aF493.0
aF430.0
aF323.0
aF408.0
aF369.0
aF396.0
aF440.0
aF355.0
aF320.0
aF362.0
aF369.0
aF470.0
aF357.0
aF269.0
aF355.0
aF368.0
aF432.0
aF446.0
aF326.0
aF352.0
aF339.0
aF235.0
aF273.0
aF413.0
aF456.0
aF410.0
aF377.0
aF429.0
aF435.0
aF383.0
aF384.0
aF368.0
aF302.0
aF289.0
aF320.0
aF362.0
aF367.0
aF351.0
aF737.0
aF892.0
aF942.0
aF941.0
aF941.0
aF942.0
aF941.0
aF941.0
aF936.0
aF942.0
aF941.0
aF941.0
aF942.0
aF941.0
aF942.0
aF941.0
aF941.0
aF940.0
aF941.0
aF942.0
aF941.0
aF941.0
aF941.0
aF942.0
aF941.0
aF941.0
aF941.0
aF941.0
aF941.0
aF930.0
aF944.0
aF926.0
aF941.0
aF941.0
aF941.0
aF941.0
aF942.0
aF941.0
aF942.0
aF941.0
aF927.0
aF940.0
aF941.0
aF941.0
aF942.0
aF941.0
aF942.0
aF941.0
aF941.0
aF941.0
aF942.0
aF941.0
aF941.0
aF942.0
aF941.0
aF942.0
aF941.0
aF941.0
aF942.0
aF942.0
aF942.0
aF941.0
aF942.0
aF941.0
aF941.0
aF942.0
aF941.0
aF942.0
aF941.0
aF942.0
aF942.0
aF941.0
aF941.0
aF942.0
aF941.0
aF942.0
aF941.0
aF941.0
aF942.0
aF941.0
aF941.0
aF941.0
aF942.0
aF941.0
aF942.0
aF942.0
aF941.0
aF942.0
aF941.0
aF942.0
aF941.0
aF941.0
aF942.0
aF941.0
aF942.0
aF941.0
aF942.0
aF941.0
aF941.0
aF942.0
aF941.0
aF942.0
aF941.0
aF942.0
aF941.0
aF942.0
aF941.0
aF941.0
aF942.0
aF941.0
aF942.0
aF941.0
aF941.0
aF948.0
a.