(lp0
I0
aF19.7
aF38.9
aF26.7
aF23.8
aF27.2
aF32.1
aF19.2
aF35.3
aF32.4
aF24.9
aF19.6
aF21.7
aF26.9
aF36.1
aF30.5
aF27.5
aF19.3
aF19.3
aF21.7
aF21.8
aF29.4
aF18.7
aF31.9
aF26.5
aF29.8
aF31.7
aF22.8
aF24.4
aF29.1
aF22.9
aF17.8
aF24.4
aF27.8
aF36.4
aF35.7
aF27.6
aF21.7
aF26.9
aF30.8
aF20.2
aF32.6
aF31.0
aF27.3
aF24.0
aF30.8
aF20.9
aF25.3
aF19.7
aF27.8
aF43.6
aF39.4
aF37.0
aF35.3
aF30.3
aF32.6
aF26.6
aF32.0
aF29.4
aF24.1
aF21.7
aF28.2
aF34.6
aF35.8
aF35.2
aF33.9
aF27.4
aF29.2
aF34.2
aF32.3
aF26.7
aF24.1
aF22.8
aF23.0
aF24.6
aF30.2
aF26.5
aF32.6
aF30.3
aF32.0
aF24.6
aF22.5
aF26.7
aF39.8
aF23.2
aF25.0
aF17.1
aF18.2
aF18.2
aF20.1
aF16.6
aF29.2
aF28.7
aF22.3
aF26.3
aF22.3
aF23.3
aF16.8
aF33.7
aF22.3
aF30.2
aF23.1
aF25.7
aF27.1
aF22.3
aF32.0
aF29.0
aF24.3
aF32.4
aF21.4
aF25.6
aF36.2
aF27.0
aF44.3
aF28.7
aF26.7
aF18.9
aF24.6
aF16.4
aF17.4
aF25.5
aF22.1
aF21.1
aF27.9
aF25.3
aF23.6
aF21.0
aF23.6
aF30.8
aF27.8
aF24.9
aF23.9
aF20.2
aF34.5
aF20.6
aF20.2
aF22.2
aF17.2
aF17.7
aF22.1
aF22.9
aF18.5
aF26.4
aF29.2
aF32.7
aF26.4
aF19.7
aF24.5
aF19.7
aF15.9
aF30.1
aF26.5
aF27.6
aF21.6
aF28.2
aF32.9
aF27.5
aF29.4
aF21.8
aF20.2
aF27.0
aF25.6
aF24.4
aF21.2
aF36.1
aF27.0
aF30.7
aF33.8
aF21.1
aF18.4
aF24.0
aF30.9
aF24.5
aF25.0
aF32.6
aF21.8
aF29.8
aF23.4
aF19.4
aF29.9
aF40.0
aF30.3
aF16.7
aF24.3
aF28.6
aF30.0
aF21.6
aF17.6
aF28.6
aF39.8
aF32.6
aF29.0
aF28.7
aF25.0
aF25.5
aF17.7
aF18.6
aF16.7
aF28.8
aF33.5
aF26.6
aF32.0
aF26.8
aF22.4
aF30.1
aF40.6
aF22.9
aF23.9
aF25.8
aF30.3
aF31.0
aF25.0
aF33.5
aF24.6
aF28.1
aF22.9
aF23.8
aF38.9
aF34.5
aF33.6
aF22.5
aF16.1
aF19.3
aF22.1
aF23.9
aF18.2
aF27.4
aF20.6
aF24.8
aF33.6
aF36.8
aF28.1
aF22.3
aF19.9
aF28.7
aF27.9
aF27.4
aF27.1
aF36.3
aF42.8
aF23.8
aF32.9
aF36.8
aF24.9
aF17.3
aF17.7
aF21.4
aF20.1
aF27.6
aF24.5
aF29.3
aF32.1
aF30.3
aF30.7
aF42.6
aF37.1
aF21.6
aF25.0
aF23.6
aF20.1
aF16.8
aF27.3
aF16.6
aF36.1
aF25.2
aF30.4
aF30.3
aF31.1
aF23.5
aF28.9
aF22.5
aF22.3
aF22.3
aF18.1
aF16.1
aF20.1
aF13.3
aF19.0
aF23.7
aF20.5
aF18.1
aF33.8
aF32.4
aF25.2
aF41.6
aF39.9
aF39.4
aF32.0
aF32.4
aF37.6
aF37.0
aF28.2
aF40.5
aF28.1
aF30.5
aF29.6
aF30.0
aF34.8
aF32.6
aF29.9
aF25.2
aF33.8
aF28.5
aF25.0
aF35.0
aF31.9
aF21.8
aF34.7
aF30.8
aF21.5
aF20.2
aF46.7
aF54.7
aF66.4
aF71.3
aF74.1
aF66.9
aF63.9
aF71.7
aF69.5
aF76.7
aF63.9
aF59.3
aF50.2
aF35.6
aF54.2
aF54.6
aF45.4
aF47.2
aF43.0
aF42.1
aF49.6
aF65.0
aF69.3
aF77.0
aF68.7
aF72.0
aF67.6
aF69.4
aF59.3
aF55.9
aF45.3
aF54.9
aF58.7
aF43.4
aF60.6
aF74.7
aF66.8
aF56.8
aF52.2
aF52.9
aF69.8
aF63.9
aF69.4
aF73.1
aF70.7
aF90.2
aF81.2
aF46.4
aF31.3
aF38.1
aF67.9
aF70.9
aF77.2
aF58.4
aF65.9
aF80.2
aF58.2
aF42.6
aF55.5
aF55.0
aF30.3
aF42.5
aF53.2
aF77.4
aF78.0
aF68.2
aF65.2
aF71.8
aF72.7
aF77.5
aF67.5
aF60.6
aF44.1
aF57.6
aF68.3
aF58.5
aF39.8
aF43.7
aF70.9
aF69.6
aF60.2
aF61.9
aF81.0
aF81.5
aF53.4
aF54.1
aF72.8
aF71.5
aF78.4
aF65.8
aF74.1
aF69.3
aF55.4
aF58.5
aF63.5
aF71.9
aF68.9
aF53.1
aF58.8
aF74.3
aF78.1
aF68.0
aF58.3
aF60.9
aF69.2
aF60.7
aF79.0
aF76.8
aF75.9
aF67.8
aF79.2
aF83.3
aF79.2
aF49.2
aF17.8
aF37.6
aF44.1
aF54.4
aF54.5
aF43.1
aF49.2
aF42.5
aF62.4
aF54.6
aF32.8
aF43.9
aF50.8
aF50.5
aF44.8
aF68.2
aF65.5
aF72.3
aF56.4
aF43.2
aF41.0
aF45.1
aF61.8
aF41.8
aF38.1
aF55.6
aF79.6
aF67.9
aF61.0
aF52.1
aF46.7
aF74.7
aF82.9
aF79.4
aF65.4
aF52.0
aF39.8
aF64.6
aF67.6
aF54.6
aF48.2
aF56.7
aF67.3
aF63.2
aF56.6
aF53.2
aF50.1
aF50.7
aF54.7
aF54.5
aF55.7
aF81.2
aF83.2
aF86.3
aF87.1
aF79.4
aF80.8
aF91.1
aF68.8
aF57.1
aF52.5
aF34.0
aF46.7
aF78.6
aF69.7
aF67.6
aF59.7
aF66.8
aF77.5
aF66.5
aF72.0
aF56.3
aF59.5
aF63.0
aF61.4
aF64.9
aF75.4
aF59.9
aF81.0
aF56.3
aF42.7
aF34.9
aF48.2
aF59.8
aF53.0
aF66.6
aF64.7
aF64.9
aF70.9
aF49.0
aF36.5
aF57.4
aF47.7
aF48.0
aF41.9
aF55.3
aF39.1
aF59.5
aF70.4
aF80.0
aF72.0
aF60.3
aF71.9
aF58.7
aF71.9
aF64.7
aF70.5
aF74.1
aF71.0
aF84.4
aF69.1
aF71.3
aF64.7
aF57.4
aF60.8
aF63.0
aF39.9
aF41.7
aF57.8
aF67.3
aF74.6
aF66.6
aF50.3
aF56.2
aF77.7
aF60.3
aF59.8
aF78.6
aF78.2
aF71.8
aF68.4
aF51.0
aF52.2
aF65.7
aF77.4
aF81.9
aF82.8
aF69.2
aF72.8
aF61.4
aF50.7
aF56.0
aF74.3
aF59.8
aF62.8
aF73.1
aF75.2
aF62.0
aF67.1
aF62.0
aF58.6
aF51.7
aF42.2
aF41.2
aF62.7
aF63.8
aF65.8
aF43.4
aF33.2
aF51.6
aF55.7
aF51.7
aF56.4
aF79.9
aF73.6
aF56.2
aF61.8
aF59.8
aF70.4
aF59.6
aF65.7
aF69.1
aF81.0
aF94.0
aF96.4
aF80.1
aF68.0
aF64.1
aF43.9
aF36.1
aF50.2
aF64.2
aF63.9
aF42.6
aF35.9
aF51.6
aF52.7
aF47.5
aF66.7
aF56.4
aF56.4
aF55.1
aF48.1
aF51.9
aF70.5
aF73.9
aF38.7
aF30.8
aF34.7
aF37.1
aF36.9
aF34.5
aF35.5
aF35.4
aF23.9
aF30.8
aF71.4
aF112.0
aF112.0
aF111.0
aF112.0
aF112.0
aF112.0
aF110.0
aF112.0
aF112.0
aF112.0
aF112.0
aF112.0
aF112.0
aF112.0
aF112.0
aF111.0
aF112.0
aF112.0
aF112.0
aF112.0
aF112.0
aF112.0
aF112.0
aF112.0
aF112.0
aF112.0
aF112.0
aF112.0
aF112.0
aF112.0
aF112.0
aF112.0
aF112.0
aF112.0
aF112.0
aF112.0
aF111.0
aF112.0
aF112.0
aF112.0
aF112.0
aF112.0
aF112.0
aF112.0
aF112.0
aF112.0
aF112.0
aF112.0
aF112.0
aF112.0
aF112.0
aF112.0
aF112.0
aF112.0
aF112.0
aF112.0
aF112.0
aF112.0
aF112.0
aF112.0
aF112.0
aF112.0
aF112.0
aF112.0
aF112.0
aF112.0
aF112.0
aF112.0
aF112.0
aF112.0
aF112.0
aF112.0
aF112.0
aF112.0
aF112.0
aF112.0
aF112.0
aF112.0
aF112.0
aF112.0
aF112.0
aF112.0
aF112.0
aF112.0
aF112.0
aF112.0
aF112.0
aF112.0
aF112.0
aF112.0
aF112.0
aF112.0
aF112.0
aF112.0
aF112.0
aF112.0
aF112.0
aF112.0
aF112.0
aF112.0
aF112.0
aF112.0
aF112.0
aF112.0
aF112.0
aF112.0
aF112.0
aF112.0
aF112.0
aF112.0
aF112.0
aF112.0
aF112.0
aF112.0
aF112.0
aF112.0
aF112.0
aF111.0
aF112.0
aF112.0
aF112.0
aF112.0
aF112.0
aF112.0
aF112.0
aF112.0
aF112.0
aF112.0
aF112.0
aF112.0
aF112.0
aF112.0
aF112.0
aF112.0
aF112.0
aF112.0
aF112.0
aF112.0
aF112.0
aF112.0
aF112.0
aF112.0
aF111.0
aF112.0
aF112.0
aF112.0
aF112.0
aF112.0
aF112.0
aF112.0
aF112.0
aF112.0
aF112.0
aF112.0
aF112.0
aF112.0
aF112.0
aF112.0
aF112.0
aF112.0
aF112.0
aF112.0
aF112.0
aF112.0
aF112.0
aF112.0
aF112.0
aF112.0
aF112.0
aF112.0
aF112.0
aF112.0
aF112.0
aF112.0
aF112.0
aF112.0
aF112.0
aF112.0
aF112.0
aF112.0
aF112.0
aF112.0
aF112.0
aF112.0
aF112.0
aF112.0
aF105.0
aF111.0
aF111.0
aF112.0
aF112.0
aF112.0
aF112.0
aF112.0
aF112.0
aF112.0
aF112.0
aF112.0
aF112.0
aF112.0
aF112.0
aF112.0
aF112.0
aF112.0
aF112.0
aF112.0
aF112.0
aF112.0
aF112.0
aF112.0
aF112.0
aF112.0
aF112.0
aF112.0
aF112.0
aF112.0
aF112.0
aF112.0
aF112.0
aF112.0
aF112.0
aF112.0
aF112.0
aF112.0
aF112.0
aF112.0
aF112.0
aF112.0
aF112.0
aF112.0
aF112.0
aF112.0
aF112.0
aF112.0
aF112.0
aF112.0
aF112.0
aF112.0
aF112.0
aF112.0
aF112.0
aF112.0
aF112.0
aF112.0
aF112.0
aF112.0
aF112.0
aF112.0
aF112.0
aF112.0
aF112.0
aF112.0
aF112.0
aF112.0
aF112.0
aF112.0
aF112.0
aF112.0
aF112.0
aF112.0
aF112.0
aF112.0
aF111.0
aF112.0
aF112.0
aF112.0
aF112.0
aF112.0
aF87.3
a.