(lp0
I0
aF33.2
aF47.6
aF51.8
aF52.8
aF30.9
aF50.6
aF63.3
aF52.9
aF52.5
aF39.8
aF39.7
aF49.7
aF66.6
aF73.3
aF63.6
aF36.7
aF47.5
aF53.1
aF50.4
aF35.6
aF44.2
aF43.1
aF41.9
aF39.7
aF63.5
aF61.4
aF54.6
aF64.2
aF62.8
aF61.6
aF79.4
aF58.6
aF48.0
aF49.7
aF60.1
aF58.3
aF56.7
aF45.2
aF55.9
aF58.9
aF63.6
aF69.9
aF60.0
aF52.4
aF44.1
aF50.3
aF43.1
aF67.7
aF64.8
aF55.0
aF54.5
aF59.0
aF60.5
aF56.9
aF47.8
aF56.0
aF60.0
aF68.4
aF62.8
aF59.1
aF65.0
aF71.5
aF50.8
aF39.2
aF41.6
aF58.6
aF75.1
aF74.3
aF68.4
aF64.0
aF61.8
aF48.8
aF57.8
aF68.6
aF74.8
aF84.3
aF72.5
aF65.8
aF57.5
aF48.7
aF56.6
aF59.0
aF70.0
aF67.4
aF61.2
aF59.3
aF59.8
aF46.6
aF60.2
aF55.1
aF58.8
aF61.4
aF53.0
aF53.9
aF59.9
aF50.5
aF56.4
aF65.6
aF61.4
aF52.3
aF49.5
aF63.7
aF79.2
aF75.1
aF77.6
aF69.1
aF63.4
aF57.5
aF60.3
aF54.5
aF56.2
aF61.2
aF56.1
aF65.5
aF55.1
aF64.5
aF66.9
aF58.2
aF51.4
aF46.6
aF44.7
aF40.7
aF47.1
aF52.2
aF41.9
aF58.0
aF52.6
aF100.0
aF112.0
aF111.0
aF112.0
aF111.0
aF112.0
aF111.0
aF111.0
aF111.0
aF112.0
aF112.0
aF112.0
aF110.0
aF112.0
aF111.0
aF112.0
aF111.0
aF112.0
aF111.0
aF112.0
aF112.0
aF112.0
aF111.0
aF112.0
aF111.0
aF112.0
aF110.0
aF111.0
aF111.0
aF112.0
aF112.0
aF112.0
aF111.0
aF111.0
aF112.0
aF112.0
aF111.0
aF112.0
aF111.0
aF110.0
aF108.0
aF108.0
aF108.0
aF112.0
aF111.0
aF112.0
aF111.0
aF111.0
aF112.0
aF112.0
aF112.0
aF112.0
aF111.0
aF111.0
aF112.0
aF112.0
aF108.0
aF109.0
aF110.0
aF111.0
aF112.0
aF111.0
aF110.0
aF111.0
aF112.0
aF112.0
aF111.0
aF112.0
aF112.0
aF112.0
aF111.0
aF111.0
aF112.0
aF112.0
aF112.0
aF111.0
aF112.0
aF111.0
aF112.0
aF112.0
aF112.0
aF112.0
aF111.0
aF112.0
aF112.0
aF112.0
aF112.0
aF111.0
aF111.0
aF111.0
aF112.0
aF112.0
aF111.0
aF111.0
aF112.0
aF111.0
aF112.0
aF111.0
aF112.0
aF111.0
aF110.0
aF111.0
aF112.0
aF111.0
aF112.0
aF111.0
aF112.0
aF111.0
aF112.0
aF111.0
aF112.0
aF111.0
aF93.8
a.