(lp0
I0
aF13.1
aF23.1
aF24.6
aF23.0
aF21.1
aF23.8
aF31.2
aF27.0
aF14.5
aF21.6
aF25.5
aF25.9
aF16.8
aF19.5
aF21.9
aF18.4
aF24.7
aF22.8
aF27.6
aF21.7
aF16.8
aF17.1
aF19.8
aF21.0
aF26.0
aF27.1
aF23.4
aF34.7
aF20.3
aF23.8
aF14.2
aF22.4
aF22.7
aF22.2
aF17.9
aF27.4
aF26.3
aF29.3
aF24.7
aF27.2
aF19.7
aF18.7
aF14.1
aF21.6
aF27.6
aF22.8
aF20.2
aF15.3
aF20.4
aF21.7
aF29.2
aF17.7
aF23.6
aF20.4
aF21.7
aF20.8
aF13.0
aF16.9
aF20.4
aF18.1
aF16.0
aF22.4
aF17.0
aF15.0
aF19.0
aF27.5
aF22.5
aF20.8
aF24.2
aF17.2
aF25.9
aF22.2
aF26.8
aF21.7
aF20.1
aF22.4
aF21.6
aF19.6
aF19.6
aF17.1
aF18.6
aF18.9
aF24.8
aF33.5
aF32.7
aF25.7
aF23.7
aF28.8
aF24.6
aF36.1
aF21.7
aF18.3
aF15.5
aF26.0
aF29.4
aF23.6
aF38.6
aF18.0
aF18.3
aF25.6
aF25.7
aF27.0
aF30.5
aF22.6
aF16.2
aF23.6
aF24.7
aF22.7
aF29.7
aF27.1
aF15.6
aF20.3
aF20.4
aF27.8
aF36.1
aF29.8
aF23.0
aF21.8
aF27.9
aF39.4
aF28.7
aF30.2
aF21.2
aF28.7
aF22.9
aF27.6
aF26.5
aF20.8
aF29.1
aF26.9
aF14.2
aF16.6
aF19.0
aF26.9
aF21.3
aF22.2
aF22.4
aF20.1
aF27.7
aF17.0
aF33.2
aF31.2
aF22.2
aF21.1
aF22.9
aF18.2
aF16.8
aF26.1
aF26.7
aF27.2
aF23.8
aF19.5
aF17.5
aF15.4
aF16.4
aF13.6
aF25.0
aF22.8
aF15.0
aF27.5
aF26.7
aF27.3
aF27.9
aF21.5
aF21.1
aF20.3
aF21.5
aF27.7
aF36.1
aF22.2
aF23.6
aF17.4
aF15.8
aF22.7
aF23.1
aF32.0
aF23.9
aF22.7
aF23.6
aF25.4
aF27.5
aF21.9
aF24.4
aF26.3
aF26.7
aF28.4
aF26.0
aF29.5
aF23.5
aF18.3
aF21.5
aF22.4
aF19.6
aF21.5
aF22.7
aF43.0
aF35.4
aF20.5
aF17.0
aF14.8
aF24.4
aF21.2
aF21.2
aF16.5
aF25.7
aF33.4
aF26.5
aF18.9
aF27.8
aF23.5
aF23.6
aF30.1
aF33.3
aF28.2
aF16.8
aF19.3
aF16.4
aF21.5
aF17.4
aF29.3
aF28.5
aF30.1
aF24.8
aF19.4
aF19.8
aF26.2
aF33.4
aF25.2
aF24.5
aF25.1
aF25.9
aF35.2
aF26.5
aF26.2
aF17.3
aF23.8
aF30.4
aF16.0
aF21.3
aF37.2
aF19.2
aF17.6
aF22.9
aF45.1
aF42.0
aF33.2
aF37.9
aF21.4
aF27.4
aF23.5
aF21.1
aF23.4
aF24.9
aF20.7
aF16.5
aF23.9
aF14.6
aF18.1
aF20.7
aF19.4
aF25.3
aF26.6
aF24.7
aF27.2
aF17.6
aF29.0
aF35.3
aF27.8
aF22.7
aF22.5
aF27.2
aF20.9
aF21.9
aF31.5
aF37.2
aF20.5
aF23.8
aF23.9
aF26.4
aF17.8
aF29.0
aF19.0
aF20.7
aF19.9
aF24.4
aF19.2
aF21.1
aF25.5
aF17.5
aF15.3
aF19.5
aF25.1
aF18.9
aF20.9
aF16.0
aF14.6
aF17.1
aF12.9
aF15.9
aF20.7
aF18.7
aF20.1
aF28.7
aF14.6
aF17.1
aF17.5
aF26.8
aF25.7
aF28.1
aF33.3
aF45.9
aF56.5
aF58.1
aF69.1
aF64.8
aF63.0
aF66.8
aF71.6
aF66.9
aF62.5
aF51.0
aF41.6
aF46.3
aF55.4
aF67.7
aF37.2
aF37.4
aF39.0
aF48.7
aF47.9
aF65.0
aF86.6
aF81.3
aF91.0
aF81.3
aF69.3
aF85.5
aF74.5
aF67.4
aF47.6
aF40.6
aF39.1
aF36.1
aF63.2
aF47.3
aF24.0
aF41.7
aF46.9
aF53.0
aF40.7
aF39.6
aF44.8
aF61.7
aF72.2
aF81.3
aF79.6
aF67.7
aF64.2
aF71.1
aF48.7
aF42.2
aF36.0
aF46.3
aF45.2
aF47.7
aF55.3
aF72.4
aF91.2
aF77.3
aF69.0
aF63.5
aF65.0
aF50.0
aF54.7
aF43.3
aF43.9
aF52.8
aF65.2
aF82.5
aF51.3
aF49.8
aF49.5
aF54.9
aF68.6
aF66.5
aF65.9
aF76.2
aF78.0
aF62.1
aF52.6
aF59.9
aF53.5
aF37.3
aF55.8
aF63.5
aF63.7
aF72.8
aF71.5
aF60.1
aF60.3
aF86.7
aF76.2
aF71.7
aF71.2
aF68.2
aF80.2
aF78.4
aF70.1
aF62.6
aF51.7
aF49.5
aF56.3
aF61.0
aF64.3
aF40.7
aF35.5
aF45.5
aF41.8
aF41.7
aF61.4
aF64.1
aF61.8
aF67.6
aF83.7
aF75.9
aF70.4
aF60.6
aF74.5
aF59.0
aF59.3
aF69.6
aF62.5
aF80.9
aF62.3
aF60.3
aF52.5
aF44.8
aF59.6
aF54.5
aF63.7
aF71.7
aF66.8
aF53.3
aF33.2
aF33.9
aF44.7
aF50.8
aF62.7
aF46.8
aF55.1
aF53.5
aF65.7
aF63.1
aF37.2
aF39.1
aF17.8
aF34.1
aF55.4
aF35.2
aF47.0
aF38.1
aF43.7
aF29.2
aF48.1
aF61.3
aF51.4
aF59.7
aF34.0
aF55.0
aF50.8
aF56.9
aF43.3
aF64.0
aF88.6
aF70.8
aF65.8
aF61.8
aF55.9
aF27.7
aF48.9
aF51.1
aF73.4
aF76.3
aF65.0
aF66.6
aF75.2
aF74.1
aF82.6
aF76.1
aF59.8
aF60.3
aF58.7
aF69.6
aF64.2
aF55.7
aF61.4
aF48.6
aF54.6
aF52.9
aF60.7
aF66.4
aF64.3
aF77.5
aF64.0
aF69.6
aF78.1
aF76.9
aF76.8
aF78.6
aF71.1
aF67.5
aF36.2
aF62.2
aF44.3
aF52.7
aF41.5
aF47.1
aF57.0
aF63.7
aF55.2
aF41.6
aF59.6
aF68.6
aF60.5
aF69.4
aF35.8
aF45.3
aF34.3
aF29.0
aF35.5
aF35.8
aF48.6
aF49.7
aF52.3
aF45.6
aF38.8
aF41.7
aF45.0
aF51.7
aF67.0
aF43.5
aF31.2
aF34.0
aF54.2
aF50.4
aF33.9
aF26.7
aF40.1
aF31.0
aF50.0
aF78.9
aF82.3
aF86.2
aF73.2
aF56.3
aF32.5
aF57.4
aF63.0
aF68.6
aF63.3
aF44.7
aF50.8
aF60.7
aF49.5
aF41.9
aF62.6
aF66.1
aF69.6
aF64.6
aF65.8
aF71.0
aF59.0
aF60.7
aF62.5
aF51.9
aF27.8
aF40.3
aF41.3
aF49.6
aF68.3
aF84.8
aF61.9
aF80.0
aF67.9
aF74.3
aF73.3
aF41.5
aF43.7
aF58.1
aF54.4
aF73.7
aF69.2
aF37.5
aF37.6
aF55.8
aF58.0
aF59.5
aF66.1
aF51.0
aF44.9
aF59.6
aF31.1
aF45.9
aF64.4
aF77.5
aF67.9
aF71.8
aF78.9
aF70.7
aF45.9
aF43.0
aF33.5
aF56.1
aF71.1
aF75.4
aF71.0
aF76.3
aF77.9
aF71.6
aF48.3
aF44.1
aF41.2
aF35.8
aF40.0
aF35.8
aF45.2
aF40.3
aF43.5
aF44.5
aF47.1
aF66.9
aF112.0
aF112.0
aF111.0
aF112.0
aF112.0
aF112.0
aF111.0
aF112.0
aF112.0
aF112.0
aF112.0
aF112.0
aF112.0
aF112.0
aF112.0
aF111.0
aF112.0
aF111.0
aF113.0
aF112.0
aF112.0
aF112.0
aF112.0
aF112.0
aF112.0
aF112.0
aF112.0
aF112.0
aF112.0
aF112.0
aF112.0
aF112.0
aF112.0
aF112.0
aF112.0
aF112.0
aF112.0
aF112.0
aF112.0
aF112.0
aF112.0
aF112.0
aF112.0
aF112.0
aF112.0
aF112.0
aF112.0
aF112.0
aF112.0
aF112.0
aF112.0
aF112.0
aF112.0
aF112.0
aF112.0
aF112.0
aF112.0
aF112.0
aF112.0
aF112.0
aF112.0
aF112.0
aF112.0
aF112.0
aF112.0
aF112.0
aF112.0
aF112.0
aF112.0
aF112.0
aF112.0
aF112.0
aF112.0
aF112.0
aF112.0
aF112.0
aF112.0
aF112.0
aF112.0
aF112.0
aF112.0
aF112.0
aF112.0
aF112.0
aF112.0
aF112.0
aF112.0
aF112.0
aF112.0
aF112.0
aF112.0
aF112.0
aF112.0
aF112.0
aF112.0
aF112.0
aF112.0
aF112.0
aF112.0
aF112.0
aF112.0
aF112.0
aF112.0
aF112.0
aF112.0
aF112.0
aF112.0
aF112.0
aF112.0
aF112.0
aF112.0
aF112.0
aF112.0
aF112.0
aF112.0
aF112.0
aF112.0
aF112.0
aF112.0
aF112.0
aF112.0
aF112.0
aF112.0
aF112.0
aF112.0
aF112.0
aF112.0
aF112.0
aF112.0
aF112.0
aF112.0
aF112.0
aF112.0
aF112.0
aF112.0
aF112.0
aF112.0
aF112.0
aF112.0
aF112.0
aF112.0
aF112.0
aF111.0
aF112.0
aF112.0
aF112.0
aF112.0
aF112.0
aF112.0
aF112.0
aF112.0
aF112.0
aF112.0
aF112.0
aF112.0
aF112.0
aF112.0
aF112.0
aF112.0
aF112.0
aF112.0
aF112.0
aF112.0
aF112.0
aF112.0
aF112.0
aF112.0
aF112.0
aF112.0
aF112.0
aF112.0
aF112.0
aF112.0
aF112.0
aF112.0
aF112.0
aF112.0
aF111.0
aF112.0
aF112.0
aF112.0
aF112.0
aF112.0
aF112.0
aF112.0
aF112.0
aF108.0
aF110.0
aF112.0
aF111.0
aF112.0
aF112.0
aF112.0
aF112.0
aF112.0
aF112.0
aF112.0
aF112.0
aF112.0
aF112.0
aF112.0
aF112.0
aF111.0
aF112.0
aF112.0
aF112.0
aF112.0
aF112.0
aF112.0
aF112.0
aF112.0
aF112.0
aF112.0
aF112.0
aF112.0
aF112.0
aF112.0
aF112.0
aF112.0
aF112.0
aF112.0
aF112.0
aF112.0
aF112.0
aF112.0
aF112.0
aF112.0
aF112.0
aF112.0
aF112.0
aF112.0
aF112.0
aF112.0
aF112.0
aF112.0
aF112.0
aF112.0
aF112.0
aF112.0
aF112.0
aF112.0
aF112.0
aF112.0
aF112.0
aF112.0
aF112.0
aF112.0
aF112.0
aF112.0
aF112.0
aF112.0
aF112.0
aF112.0
aF112.0
aF112.0
aF112.0
aF112.0
aF112.0
aF112.0
aF112.0
aF112.0
aF112.0
aF112.0
aF112.0
aF112.0
aF112.0
aF112.0
aF112.0
aF112.0
aF55.2
a.