(lp0
I0
aF106.0
aF111.0
aF109.0
aF112.0
aF112.0
aF112.0
aF112.0
aF112.0
aF112.0
aF111.0
aF112.0
aF111.0
aF112.0
aF111.0
aF112.0
aF112.0
aF111.0
aF112.0
aF75.5
aF43.3
aF55.6
aF59.2
aF37.8
aF55.7
aF39.5
aF32.9
aF66.2
aF74.7
aF81.9
aF68.3
aF43.9
aF32.5
aF44.6
aF56.3
aF48.5
aF50.4
aF57.3
aF68.1
aF70.9
aF112.0
aF112.0
aF111.0
aF112.0
aF112.0
aF112.0
aF110.0
aF112.0
aF112.0
aF112.0
aF112.0
aF112.0
aF111.0
aF112.0
aF112.0
aF111.0
aF112.0
aF111.0
aF111.0
aF112.0
aF112.0
aF112.0
aF112.0
aF112.0
aF112.0
aF112.0
aF112.0
aF111.0
aF112.0
aF112.0
aF111.0
aF112.0
aF112.0
aF112.0
aF112.0
aF112.0
aF111.0
aF112.0
aF112.0
aF112.0
aF112.0
aF112.0
aF111.0
aF112.0
aF112.0
aF112.0
aF112.0
aF112.0
aF112.0
aF112.0
aF112.0
aF112.0
aF111.0
aF112.0
aF112.0
aF112.0
aF111.0
aF112.0
aF112.0
aF112.0
aF112.0
aF112.0
aF112.0
aF112.0
aF112.0
aF112.0
aF112.0
aF111.0
aF112.0
aF112.0
aF112.0
aF112.0
aF111.0
aF112.0
aF112.0
aF111.0
aF112.0
aF112.0
aF112.0
aF112.0
aF111.0
aF6.0
a.