(lp0
I0
aF31.2
aF37.7
aF32.0
aF37.3
aF34.0
aF31.1
aF40.9
aF24.8
aF33.1
aF34.6
aF34.1
aF31.4
aF37.7
aF38.6
aF34.1
aF33.9
aF43.8
aF33.0
aF30.4
aF39.5
aF32.9
aF26.1
aF24.9
aF33.0
aF30.1
aF27.1
aF43.4
aF31.3
aF31.9
aF38.8
aF54.1
aF51.1
aF34.7
aF24.1
aF25.6
aF31.5
aF38.3
aF33.8
aF27.8
aF25.4
aF35.5
aF37.9
aF40.7
aF40.0
aF29.8
aF32.1
aF42.0
aF53.0
aF44.3
aF32.3
aF18.5
aF22.7
aF23.8
aF31.8
aF35.0
aF36.6
aF42.9
aF34.1
aF43.7
aF37.1
aF33.3
aF40.5
aF37.9
aF40.6
aF35.8
aF34.9
aF29.7
aF27.0
aF30.0
aF35.0
aF35.7
aF44.4
aF39.0
aF32.9
aF35.8
aF38.1
aF30.6
aF33.7
aF39.3
aF33.3
aF33.1
aF36.0
aF30.9
aF27.5
aF24.6
aF28.9
aF46.1
aF30.2
aF33.1
aF33.6
aF32.4
aF38.0
aF41.2
aF38.8
aF24.4
aF32.2
aF27.8
aF22.5
aF37.3
aF33.2
aF33.7
aF32.1
aF21.7
aF26.4
aF38.6
aF36.4
aF35.1
aF31.9
aF28.2
aF31.1
aF29.5
aF36.6
aF32.7
aF30.7
aF18.4
aF21.5
aF26.5
aF37.8
aF39.5
aF27.8
aF31.8
aF32.7
aF34.2
aF38.3
aF36.2
aF39.2
aF30.4
aF33.6
aF33.1
aF35.8
aF29.7
aF38.9
aF31.2
aF46.2
aF39.0
aF34.7
aF40.6
aF37.4
aF36.2
aF41.9
aF44.2
aF31.8
aF31.4
aF34.6
aF40.5
aF42.5
aF44.4
aF40.6
aF52.5
aF34.8
aF36.2
aF37.8
aF37.6
aF40.7
aF28.7
aF31.9
aF32.4
aF33.7
aF45.8
aF39.6
aF29.1
aF27.8
aF20.8
aF24.0
aF29.6
aF32.7
aF40.9
aF32.7
aF27.7
aF36.5
aF35.5
aF41.8
aF35.1
aF33.5
aF29.5
aF26.5
aF28.7
aF24.0
aF35.8
aF29.0
aF24.9
aF39.6
aF28.6
aF33.5
aF33.7
aF31.5
aF35.0
aF27.2
aF23.5
aF26.9
aF25.8
aF25.3
aF39.1
aF37.0
aF41.1
aF26.1
aF32.0
aF43.5
aF38.7
aF42.0
aF35.1
aF36.3
aF38.5
aF46.6
aF23.9
aF28.3
aF31.0
aF32.6
aF37.8
aF31.4
aF39.0
aF33.4
aF35.0
aF27.8
aF33.2
aF44.4
aF30.4
aF28.9
aF32.8
aF32.9
aF33.6
aF38.1
aF30.8
aF37.6
aF30.1
aF37.2
aF32.9
aF25.1
aF29.0
aF27.1
aF38.7
aF32.7
aF41.0
aF36.3
aF34.9
aF35.3
aF34.9
aF31.9
aF22.6
aF22.6
aF24.9
aF27.6
aF33.4
aF33.8
aF28.7
aF26.8
aF30.1
aF35.2
aF34.2
aF30.6
aF28.0
aF30.6
aF34.6
aF28.9
aF29.7
aF38.9
aF43.1
aF38.0
aF31.3
aF34.0
aF32.7
aF46.8
aF30.2
aF37.2
aF26.2
aF26.1
aF24.1
aF35.1
aF37.5
aF40.8
aF32.1
aF48.2
aF41.9
aF36.0
aF25.8
aF38.2
aF42.0
aF45.0
aF37.1
aF41.7
aF32.7
aF33.1
aF22.5
aF28.7
aF32.4
aF27.1
aF33.6
aF37.5
aF26.6
aF35.9
aF40.1
aF33.1
aF35.4
aF33.6
aF36.3
aF40.1
aF32.2
aF36.4
aF46.1
aF42.7
aF26.4
aF30.1
aF30.3
aF37.1
aF33.1
aF31.2
aF28.9
aF31.8
aF25.8
aF49.5
aF71.3
aF55.8
aF47.9
aF43.6
aF35.9
aF45.3
aF47.4
aF44.9
aF41.4
aF33.6
aF49.3
aF48.9
aF61.5
aF74.2
aF64.7
aF54.1
aF65.5
aF65.9
aF70.4
aF66.6
aF68.0
aF47.1
aF46.2
aF34.4
aF42.5
aF41.0
aF43.7
aF42.3
aF49.3
aF58.1
aF63.9
aF63.1
aF50.6
aF67.2
aF57.1
aF37.4
aF43.9
aF51.5
aF60.8
aF58.6
aF47.0
aF43.9
aF50.3
aF33.5
aF46.3
aF24.3
aF26.1
aF58.0
aF79.4
aF79.8
aF48.6
aF40.6
aF36.3
aF50.7
aF48.6
aF34.8
aF45.8
aF69.1
aF61.2
aF52.8
aF80.7
aF72.6
aF60.2
aF43.1
aF32.4
aF40.1
aF47.8
aF39.1
aF43.8
aF33.2
aF39.8
aF53.4
aF65.1
aF60.4
aF43.7
aF50.4
aF69.2
aF72.0
aF46.2
aF39.9
aF48.2
aF55.9
aF33.3
aF28.2
aF52.9
aF62.4
aF41.9
aF41.5
aF32.0
aF43.3
aF41.1
aF42.2
aF53.1
aF55.0
aF50.2
aF44.0
aF39.5
aF55.8
aF57.1
aF41.8
aF31.4
aF43.5
aF53.6
aF52.2
aF41.2
aF53.7
aF36.9
aF30.6
aF38.5
aF42.8
aF35.8
aF31.0
aF28.1
aF55.9
aF89.3
aF83.2
aF66.5
aF61.2
aF55.9
aF67.4
aF64.8
aF70.2
aF51.8
aF54.5
aF77.1
aF71.5
aF61.2
aF60.6
aF68.6
aF48.7
aF45.9
aF42.6
aF47.5
aF67.2
aF72.0
aF70.4
aF51.7
aF66.4
aF73.7
aF62.9
aF35.0
aF41.6
aF47.2
aF60.9
aF65.3
aF46.3
aF27.3
aF31.2
aF44.8
aF56.2
aF70.7
aF55.2
aF41.8
aF54.1
aF66.0
aF58.6
aF45.7
aF49.0
aF52.4
aF55.8
aF64.5
aF59.2
aF59.8
aF57.9
aF59.6
aF34.4
aF29.7
aF26.2
aF24.5
aF33.9
aF30.4
aF22.5
aF35.5
aF54.6
aF57.7
aF77.0
aF71.7
aF36.8
aF41.8
aF43.4
aF50.9
aF46.9
aF38.1
aF40.0
aF43.3
aF52.7
aF52.4
aF51.9
aF50.3
aF47.8
aF38.9
aF50.6
aF34.0
aF48.1
aF66.3
aF77.9
aF71.0
aF52.0
aF57.2
aF47.1
aF48.4
aF47.0
aF42.3
aF60.3
aF72.8
aF57.4
aF61.3
aF67.4
aF67.6
aF58.9
aF74.4
aF55.4
aF44.5
aF33.1
aF36.6
aF52.0
aF42.8
aF50.7
aF42.1
aF46.7
aF44.7
aF35.3
aF44.2
aF26.1
aF42.9
aF41.7
aF42.3
aF57.8
aF48.8
aF50.7
aF66.8
aF75.0
aF55.8
aF45.0
aF39.5
aF45.7
aF56.5
aF61.4
aF36.4
aF44.2
aF57.3
aF37.9
aF31.5
aF42.3
aF39.6
aF58.1
aF61.9
aF47.4
aF38.2
aF33.7
aF26.4
aF42.2
aF37.5
aF49.5
aF59.1
aF58.1
aF42.7
aF47.2
aF51.8
aF40.7
aF37.3
aF49.1
aF41.5
aF54.2
aF49.7
aF58.7
aF67.6
aF74.4
aF52.8
aF49.4
aF45.3
aF62.7
aF77.8
aF66.0
aF55.4
aF60.2
aF59.9
aF35.7
aF37.6
aF50.4
aF54.9
aF48.0
aF45.7
aF49.8
aF50.9
aF41.9
aF35.8
aF20.2
aF14.8
aF27.2
aF42.5
aF47.6
aF60.5
aF78.3
aF65.3
aF52.3
aF44.8
aF66.9
aF74.5
aF66.8
aF56.8
aF67.1
aF44.3
aF57.1
aF52.2
aF59.1
aF62.4
aF63.7
aF46.2
aF23.0
aF25.4
aF38.7
aF44.0
aF35.9
aF37.5
aF33.3
aF36.9
aF34.0
aF42.6
aF34.8
aF48.0
aF112.0
aF112.0
aF112.0
aF112.0
aF112.0
aF112.0
aF112.0
aF112.0
aF112.0
aF112.0
aF112.0
aF112.0
aF112.0
aF112.0
aF112.0
aF112.0
aF112.0
aF112.0
aF112.0
aF112.0
aF112.0
aF112.0
aF112.0
aF112.0
aF112.0
aF112.0
aF112.0
aF112.0
aF112.0
aF112.0
aF112.0
aF112.0
aF112.0
aF112.0
aF112.0
aF112.0
aF112.0
aF112.0
aF112.0
aF112.0
aF112.0
aF112.0
aF112.0
aF112.0
aF112.0
aF112.0
aF112.0
aF112.0
aF112.0
aF112.0
aF112.0
aF112.0
aF112.0
aF112.0
aF112.0
aF112.0
aF112.0
aF112.0
aF112.0
aF112.0
aF112.0
aF112.0
aF112.0
aF112.0
aF112.0
aF112.0
aF112.0
aF112.0
aF112.0
aF112.0
aF112.0
aF112.0
aF112.0
aF112.0
aF112.0
aF112.0
aF112.0
aF112.0
aF112.0
aF112.0
aF112.0
aF112.0
aF112.0
aF112.0
aF112.0
aF112.0
aF112.0
aF112.0
aF112.0
aF112.0
aF112.0
aF112.0
aF112.0
aF112.0
aF112.0
aF112.0
aF112.0
aF112.0
aF112.0
aF112.0
aF112.0
aF112.0
aF112.0
aF112.0
aF112.0
aF112.0
aF112.0
aF112.0
aF112.0
aF112.0
aF112.0
aF112.0
aF112.0
aF112.0
aF112.0
aF112.0
aF112.0
aF112.0
aF112.0
aF112.0
aF112.0
aF112.0
aF112.0
aF112.0
aF112.0
aF112.0
aF112.0
aF112.0
aF112.0
aF112.0
aF112.0
aF112.0
aF112.0
aF112.0
aF112.0
aF112.0
aF112.0
aF112.0
aF112.0
aF112.0
aF112.0
aF112.0
aF112.0
aF112.0
aF112.0
aF112.0
aF112.0
aF112.0
aF112.0
aF112.0
aF112.0
aF112.0
aF112.0
aF112.0
aF112.0
aF112.0
aF112.0
aF112.0
aF112.0
aF112.0
aF112.0
aF112.0
aF112.0
aF112.0
aF112.0
aF112.0
aF112.0
aF112.0
aF112.0
aF112.0
aF112.0
aF112.0
aF112.0
aF112.0
aF112.0
aF112.0
aF112.0
aF112.0
aF112.0
aF112.0
aF112.0
aF112.0
aF112.0
aF112.0
aF112.0
aF112.0
aF112.0
aF112.0
aF112.0
aF112.0
aF112.0
aF112.0
aF112.0
aF112.0
aF112.0
aF112.0
aF112.0
aF112.0
aF112.0
aF112.0
aF112.0
aF112.0
aF112.0
aF112.0
aF112.0
aF112.0
aF112.0
aF112.0
aF112.0
aF112.0
aF112.0
aF112.0
aF112.0
aF112.0
aF112.0
aF112.0
aF112.0
aF112.0
aF112.0
aF112.0
aF112.0
aF112.0
aF112.0
aF112.0
aF112.0
aF112.0
aF112.0
aF112.0
aF112.0
aF112.0
aF112.0
aF112.0
aF112.0
aF112.0
aF112.0
aF112.0
aF112.0
aF112.0
aF112.0
aF112.0
aF112.0
aF112.0
aF112.0
aF112.0
aF112.0
aF112.0
aF112.0
aF112.0
aF112.0
aF112.0
aF112.0
aF112.0
aF112.0
aF112.0
aF112.0
aF112.0
aF112.0
aF112.0
aF112.0
aF112.0
aF112.0
aF112.0
aF112.0
aF112.0
aF112.0
aF112.0
aF112.0
aF112.0
aF112.0
aF7.19
a.