(lp0
I0
aF39.0
aF31.8
aF28.8
aF29.7
aF31.8
aF31.4
aF24.0
aF24.4
aF30.0
aF26.4
aF18.0
aF20.5
aF23.6
aF36.9
aF25.2
aF36.2
aF20.6
aF26.2
aF37.5
aF29.5
aF24.8
aF26.6
aF25.6
aF30.2
aF23.2
aF23.8
aF25.7
aF25.1
aF25.2
aF25.4
aF26.1
aF27.1
aF19.6
aF22.9
aF29.3
aF26.7
aF26.2
aF27.2
aF19.5
aF27.7
aF26.8
aF34.4
aF23.9
aF25.2
aF24.5
aF22.6
aF21.0
aF27.5
aF36.8
aF29.5
aF19.6
aF19.1
aF33.0
aF20.8
aF24.0
aF23.6
aF28.8
aF26.9
aF25.9
aF25.9
aF25.8
aF23.7
aF26.3
aF29.7
aF23.5
aF20.9
aF23.6
aF29.0
aF24.0
aF28.3
aF32.7
aF19.8
aF26.3
aF25.9
aF29.9
aF29.3
aF22.8
aF22.1
aF27.2
aF30.7
aF27.5
aF27.6
aF29.5
aF27.5
aF28.0
aF16.2
aF22.4
aF25.5
aF36.1
aF32.6
aF26.2
aF24.2
aF15.4
aF24.9
aF35.2
aF25.2
aF18.0
aF23.1
aF28.9
aF28.5
aF35.4
aF34.9
aF26.7
aF23.1
aF29.5
aF31.3
aF23.2
aF27.6
aF23.0
aF24.9
aF33.2
aF27.2
aF29.6
aF32.0
aF22.9
aF24.0
aF24.4
aF20.3
aF37.5
aF35.8
aF28.8
aF23.7
aF27.7
aF29.5
aF35.2
aF21.3
aF31.7
aF29.0
aF30.3
aF24.8
aF24.7
aF19.3
aF30.5
aF27.2
aF29.0
aF33.9
aF29.3
aF23.7
aF30.5
aF27.3
aF19.5
aF19.0
aF24.5
aF22.2
aF26.9
aF24.9
aF28.8
aF32.9
aF36.0
aF20.2
aF26.6
aF27.3
aF25.5
aF29.8
aF21.6
aF24.1
aF25.2
aF22.1
aF25.6
aF36.1
aF22.3
aF24.0
aF21.4
aF25.2
aF19.8
aF27.8
aF23.6
aF26.8
aF26.6
aF22.9
aF17.7
aF27.5
aF28.0
aF23.9
aF26.7
aF28.7
aF29.5
aF33.0
aF21.3
aF20.9
aF23.6
aF28.9
aF18.1
aF31.9
aF17.5
aF23.1
aF20.8
aF22.4
aF21.9
aF18.0
aF23.7
aF23.9
aF21.4
aF22.1
aF25.2
aF29.3
aF29.2
aF17.3
aF21.8
aF25.4
aF21.1
aF24.7
aF28.4
aF21.5
aF24.5
aF26.1
aF32.9
aF22.3
aF24.8
aF22.6
aF24.7
aF18.6
aF24.5
aF22.7
aF24.5
aF24.9
aF23.4
aF27.3
aF24.9
aF31.0
aF23.9
aF22.8
aF22.6
aF15.0
aF31.2
aF40.5
aF19.8
aF24.7
aF23.3
aF30.1
aF36.6
aF38.8
aF28.5
aF23.4
aF24.9
aF30.8
aF21.3
aF25.3
aF30.8
aF24.8
aF40.1
aF19.0
aF30.6
aF30.6
aF20.1
aF27.5
aF33.4
aF24.5
aF21.7
aF20.3
aF21.5
aF30.0
aF27.0
aF25.5
aF25.4
aF20.8
aF28.2
aF21.8
aF35.7
aF34.8
aF29.2
aF16.3
aF20.1
aF27.2
aF31.4
aF25.4
aF18.9
aF13.2
aF24.2
aF26.5
aF21.9
aF26.9
aF37.8
aF25.2
aF31.4
aF24.0
aF15.8
aF22.1
aF30.6
aF27.5
aF21.1
aF17.8
aF28.3
aF20.6
aF35.4
aF28.3
aF25.1
aF26.3
aF25.9
aF27.4
aF28.7
aF23.2
aF22.5
aF30.9
aF27.0
aF22.7
aF24.7
aF26.4
aF23.8
aF22.6
aF20.1
aF19.1
aF17.6
aF24.4
aF29.4
aF29.9
aF35.2
aF26.0
aF23.7
aF24.5
aF21.0
aF28.6
aF29.5
aF27.3
aF56.1
aF52.9
aF66.0
aF61.5
aF55.7
aF58.4
aF43.6
aF52.4
aF56.2
aF49.2
aF51.8
aF70.3
aF68.8
aF51.1
aF37.1
aF58.9
aF57.7
aF61.0
aF59.1
aF63.2
aF75.0
aF61.2
aF44.9
aF49.8
aF49.2
aF51.2
aF50.5
aF37.5
aF41.8
aF60.0
aF62.3
aF62.0
aF47.0
aF62.6
aF67.6
aF60.9
aF49.7
aF47.2
aF57.2
aF75.0
aF76.4
aF55.9
aF57.4
aF46.5
aF65.4
aF65.2
aF64.7
aF66.3
aF45.2
aF39.4
aF43.3
aF45.7
aF59.3
aF66.7
aF54.6
aF44.5
aF32.3
aF24.8
aF45.3
aF41.0
aF46.2
aF51.2
aF57.2
aF71.4
aF66.1
aF66.3
aF54.9
aF57.9
aF69.2
aF78.7
aF62.4
aF66.2
aF77.4
aF57.8
aF52.0
aF40.5
aF48.9
aF61.2
aF67.5
aF71.2
aF64.3
aF54.9
aF59.9
aF50.5
aF63.3
aF76.2
aF71.9
aF64.6
aF69.8
aF61.5
aF55.8
aF52.3
aF69.1
aF61.1
aF62.7
aF70.3
aF65.1
aF45.8
aF24.8
aF32.3
aF39.8
aF32.7
aF47.6
aF54.7
aF52.7
aF47.0
aF33.5
aF52.2
aF70.6
aF63.1
aF65.8
aF70.7
aF66.8
aF77.0
aF65.9
aF61.3
aF74.3
aF67.5
aF60.3
aF59.8
aF57.7
aF58.2
aF51.9
aF39.7
aF49.9
aF56.4
aF84.5
aF77.8
aF62.6
aF44.7
aF61.7
aF59.2
aF65.4
aF63.4
aF50.1
aF45.4
aF66.1
aF52.2
aF47.5
aF60.0
aF69.2
aF69.4
aF56.1
aF60.7
aF63.8
aF57.5
aF64.7
aF64.2
aF64.8
aF53.1
aF58.4
aF74.3
aF62.6
aF49.4
aF57.5
aF66.0
aF59.8
aF79.7
aF93.1
aF79.4
aF82.0
aF85.6
aF61.5
aF57.9
aF56.1
aF62.9
aF66.2
aF69.7
aF60.3
aF47.3
aF68.5
aF56.6
aF59.3
aF64.9
aF71.9
aF57.7
aF49.2
aF52.9
aF54.1
aF46.6
aF47.2
aF45.2
aF57.7
aF72.2
aF65.0
aF65.9
aF60.8
aF75.8
aF53.7
aF52.4
aF56.0
aF55.4
aF55.2
aF46.2
aF37.0
aF47.4
aF64.0
aF70.4
aF63.5
aF45.3
aF68.6
aF76.2
aF59.0
aF70.1
aF65.9
aF72.8
aF74.0
aF62.8
aF49.3
aF54.7
aF51.1
aF58.4
aF77.5
aF81.9
aF79.6
aF55.1
aF44.6
aF52.4
aF67.2
aF62.1
aF43.7
aF41.8
aF53.5
aF70.6
aF68.5
aF53.9
aF65.8
aF61.6
aF58.2
aF70.5
aF67.4
aF60.4
aF61.3
aF76.2
aF58.0
aF64.7
aF72.3
aF83.7
aF66.6
aF52.4
aF42.3
aF27.3
aF32.5
aF44.2
aF36.3
aF59.7
aF73.7
aF65.6
aF55.3
aF59.1
aF58.2
aF59.7
aF61.8
aF53.7
aF47.2
aF64.3
aF60.8
aF51.1
aF53.6
aF52.4
aF48.8
aF54.4
aF54.6
aF43.7
aF44.5
aF44.8
aF61.3
aF56.5
aF52.5
aF59.0
aF71.7
aF41.3
aF63.2
aF71.2
aF53.4
aF25.8
aF43.9
aF46.6
aF43.1
aF33.9
aF48.8
aF57.2
aF46.4
aF47.4
aF64.3
aF65.5
aF67.6
aF43.1
aF55.9
aF48.7
aF52.1
aF47.4
aF37.8
aF29.1
aF33.0
aF67.5
aF65.9
aF55.6
aF66.8
aF67.2
aF56.5
aF58.4
aF43.9
aF45.2
aF61.1
aF56.9
aF42.1
aF44.2
aF44.6
aF23.6
aF29.8
aF30.8
aF25.2
aF32.9
aF30.5
aF42.0
aF59.7
aF95.4
aF94.2
aF88.2
aF93.8
aF87.3
aF89.0
aF89.4
aF91.8
aF91.4
aF87.9
aF93.5
aF89.5
aF91.8
aF93.8
aF94.5
aF89.9
aF88.7
aF90.5
aF90.9
aF90.2
aF92.2
aF90.2
aF91.2
aF90.0
aF92.2
aF88.4
aF91.7
aF92.0
aF92.2
aF91.2
aF87.9
aF95.1
aF91.4
aF94.1
aF93.4
aF90.9
aF88.0
aF88.1
aF89.5
aF93.0
aF89.2
aF91.8
aF90.7
aF90.5
aF89.2
aF91.6
aF89.4
aF92.0
aF89.4
aF92.2
aF89.5
aF93.2
aF93.1
aF91.4
aF87.8
aF90.1
aF91.4
aF91.2
aF93.4
aF89.4
aF90.7
aF88.5
aF87.4
aF89.5
aF90.6
aF90.0
aF92.3
aF92.0
aF90.2
aF91.6
aF95.1
aF95.6
aF90.9
aF90.3
aF88.6
aF89.7
aF89.9
aF94.8
aF88.5
aF89.6
aF90.1
aF87.7
aF92.5
aF87.6
aF95.8
aF89.3
aF94.5
aF91.7
aF91.2
aF90.1
aF87.0
aF90.7
aF90.5
aF91.7
aF87.8
aF91.2
aF95.1
aF93.6
aF92.5
aF92.7
aF90.9
aF94.0
aF89.5
aF89.0
aF92.2
aF89.1
aF89.0
aF89.2
aF89.4
aF96.3
aF91.0
aF93.6
aF95.1
aF89.7
aF94.7
aF90.2
aF91.7
aF93.9
aF87.7
aF95.5
aF95.3
aF95.4
aF96.1
aF91.0
aF89.0
aF87.8
aF89.9
aF93.0
aF90.2
aF91.8
aF92.1
aF93.5
aF89.0
aF91.3
aF93.0
aF94.0
aF89.6
aF94.3
aF90.9
aF86.9
aF90.4
aF93.7
aF91.0
aF91.0
aF88.3
aF88.4
aF91.7
aF89.9
aF91.3
aF92.3
aF93.5
aF93.1
aF92.0
aF87.8
aF90.9
aF90.5
aF87.0
aF90.4
aF92.6
aF90.4
aF91.3
aF90.9
aF93.3
aF93.6
aF90.2
aF91.7
aF90.4
aF92.3
aF90.4
aF89.9
aF89.5
aF91.7
aF93.6
aF95.0
aF93.5
aF93.0
aF87.9
aF93.5
aF93.8
aF90.9
aF92.8
aF89.0
aF95.6
aF89.8
aF93.4
aF93.9
aF91.2
aF90.0
aF90.7
aF94.6
aF89.7
aF92.7
aF94.1
aF95.0
aF94.6
aF90.0
aF91.2
aF93.2
aF94.0
aF92.8
aF91.8
aF90.6
aF91.7
aF90.8
aF91.6
aF91.8
aF87.4
aF88.6
aF92.2
aF92.9
aF92.7
aF94.8
aF91.0
aF91.4
aF91.0
aF87.1
aF91.3
aF92.0
aF91.0
aF87.1
aF92.0
aF94.3
aF99.7
aF93.6
aF89.4
aF91.2
aF89.4
aF88.9
aF89.6
aF89.2
aF89.7
aF91.1
aF94.0
aF96.9
aF87.7
aF88.9
aF88.6
aF91.8
aF91.9
aF92.7
aF92.9
aF94.6
aF94.3
aF89.2
aF91.1
aF89.0
aF89.7
aF93.3
aF90.9
aF94.5
aF95.8
aF88.6
aF89.2
aF92.0
aF90.0
aF87.1
aF87.4
aF95.4
aF92.8
aF94.0
aF93.7
aF89.8
aF89.0
aF94.9
aF89.0
aF92.8
aF92.4
aF91.8
aF94.7
a.