(lp0
I0
aF36.8
aF38.8
aF38.0
aF37.2
aF34.1
aF35.1
aF35.7
aF35.2
aF43.3
aF45.8
aF32.8
aF29.1
aF35.0
aF40.5
aF43.4
aF44.0
aF48.1
aF59.8
aF53.4
aF50.3
aF52.1
aF49.5
aF44.0
aF38.4
aF39.2
aF37.5
aF37.2
aF41.0
aF30.1
aF40.1
aF42.7
aF46.5
aF49.2
aF37.2
aF37.4
aF53.2
aF59.0
aF58.8
aF59.3
aF68.0
aF56.9
aF46.3
aF37.8
aF46.3
aF38.6
aF42.9
aF64.2
aF67.8
aF52.4
aF35.5
aF50.7
aF53.2
aF37.6
aF51.4
aF71.4
aF59.6
aF52.1
aF50.5
aF42.1
aF43.7
aF37.9
aF34.6
aF36.1
aF38.0
aF46.4
aF33.7
aF40.4
aF47.8
aF60.6
aF37.1
aF37.6
aF33.9
aF37.6
aF45.4
aF43.2
aF45.9
aF51.5
aF55.9
aF53.3
aF46.2
aF46.5
aF41.8
aF50.1
aF44.3
aF41.1
aF45.7
aF53.5
aF46.4
aF52.7
aF58.8
aF51.2
aF38.6
aF48.6
aF44.0
aF47.2
aF52.4
aF42.3
aF38.1
aF43.1
aF44.0
aF56.0
aF42.5
aF32.1
aF42.3
aF43.9
aF51.4
aF53.2
aF38.9
aF42.0
aF40.4
aF28.1
aF32.6
aF49.2
aF54.3
aF48.9
aF45.0
aF51.1
aF51.9
aF45.7
aF45.7
aF43.8
aF36.0
aF34.4
aF38.1
aF43.1
aF43.7
aF41.8
aF87.9
aF106.0
aF112.0
aF112.0
aF112.0
aF112.0
aF112.0
aF112.0
aF112.0
aF112.0
aF112.0
aF112.0
aF112.0
aF112.0
aF112.0
aF112.0
aF112.0
aF112.0
aF112.0
aF112.0
aF112.0
aF112.0
aF112.0
aF112.0
aF112.0
aF112.0
aF112.0
aF112.0
aF112.0
aF111.0
aF112.0
aF110.0
aF112.0
aF112.0
aF112.0
aF112.0
aF112.0
aF112.0
aF112.0
aF112.0
aF111.0
aF112.0
aF112.0
aF112.0
aF112.0
aF112.0
aF112.0
aF112.0
aF112.0
aF112.0
aF112.0
aF112.0
aF112.0
aF112.0
aF112.0
aF112.0
aF112.0
aF112.0
aF112.0
aF112.0
aF112.0
aF112.0
aF112.0
aF112.0
aF112.0
aF112.0
aF112.0
aF112.0
aF112.0
aF112.0
aF112.0
aF112.0
aF112.0
aF112.0
aF112.0
aF112.0
aF112.0
aF112.0
aF112.0
aF112.0
aF112.0
aF112.0
aF112.0
aF112.0
aF112.0
aF112.0
aF112.0
aF112.0
aF112.0
aF112.0
aF112.0
aF112.0
aF112.0
aF112.0
aF112.0
aF112.0
aF112.0
aF112.0
aF112.0
aF112.0
aF112.0
aF112.0
aF112.0
aF112.0
aF112.0
aF112.0
aF112.0
aF112.0
aF112.0
aF112.0
aF112.0
aF112.0
aF112.0
aF5.38
a.