(lp0
I0
aF70.0
aF70.9
aF63.5
aF64.1
aF69.6
aF71.6
aF75.7
aF72.4
aF60.6
aF60.7
aF74.6
aF71.7
aF75.1
aF62.0
aF60.0
aF54.3
aF56.1
aF45.1
aF48.4
aF50.8
aF52.1
aF51.9
aF59.1
aF61.7
aF64.0
aF62.6
aF64.3
aF56.0
aF80.2
aF64.9
aF61.6
aF59.9
aF54.3
aF63.5
aF69.3
aF51.7
aF48.0
aF40.3
aF44.0
aF39.0
aF51.0
aF61.5
aF51.3
aF62.7
aF63.4
aF58.4
aF37.8
aF39.8
aF48.4
aF67.0
aF50.2
aF53.5
aF68.5
aF49.8
aF35.8
aF43.5
aF56.7
aF50.1
aF57.4
aF62.7
aF73.4
aF72.8
aF70.8
aF63.3
aF60.4
aF74.2
aF62.3
aF50.0
aF43.9
aF64.5
aF62.4
aF73.9
aF63.1
aF61.4
aF67.2
aF49.4
aF49.3
aF50.8
aF48.0
aF59.1
aF58.7
aF61.0
aF59.5
aF60.8
aF62.6
aF61.3
aF48.9
aF55.8
aF53.9
aF44.0
aF56.5
aF70.6
aF59.9
aF65.3
aF47.2
aF50.0
aF65.7
aF69.9
aF62.4
aF61.4
aF50.9
aF61.5
aF74.6
aF63.9
aF58.5
aF55.3
aF52.1
aF66.2
aF62.8
aF65.9
aF80.3
aF65.0
aF57.1
aF46.9
aF54.7
aF59.8
aF53.3
aF52.5
aF55.6
aF51.1
aF54.8
aF64.9
aF74.0
aF68.7
aF60.7
aF58.5
aF63.3
aF49.4
aF98.9
aF112.0
aF112.0
aF112.0
aF112.0
aF112.0
aF112.0
aF112.0
aF112.0
aF112.0
aF112.0
aF112.0
aF112.0
aF112.0
aF112.0
aF112.0
aF112.0
aF112.0
aF112.0
aF112.0
aF112.0
aF112.0
aF112.0
aF112.0
aF112.0
aF112.0
aF112.0
aF112.0
aF111.0
aF112.0
aF110.0
aF112.0
aF112.0
aF112.0
aF112.0
aF112.0
aF112.0
aF112.0
aF112.0
aF109.0
aF112.0
aF112.0
aF112.0
aF112.0
aF112.0
aF112.0
aF112.0
aF112.0
aF112.0
aF112.0
aF112.0
aF112.0
aF112.0
aF112.0
aF112.0
aF112.0
aF112.0
aF112.0
aF112.0
aF112.0
aF112.0
aF112.0
aF112.0
aF112.0
aF112.0
aF112.0
aF112.0
aF112.0
aF112.0
aF112.0
aF112.0
aF112.0
aF112.0
aF112.0
aF112.0
aF112.0
aF112.0
aF112.0
aF112.0
aF112.0
aF112.0
aF112.0
aF112.0
aF112.0
aF112.0
aF112.0
aF112.0
aF112.0
aF112.0
aF112.0
aF112.0
aF112.0
aF112.0
aF112.0
aF112.0
aF112.0
aF112.0
aF112.0
aF112.0
aF112.0
aF112.0
aF112.0
aF112.0
aF112.0
aF112.0
aF112.0
aF112.0
aF112.0
aF112.0
aF112.0
aF112.0
aF112.0
aF5.96
a.