(lp0
I0
aF70.6
aF62.9
aF56.7
aF52.2
aF59.6
aF47.0
aF47.1
aF57.4
aF57.8
aF64.4
aF66.3
aF61.0
aF43.7
aF37.5
aF46.1
aF69.9
aF58.5
aF42.4
aF59.3
aF71.7
aF65.4
aF66.8
aF65.6
aF71.0
aF41.9
aF49.5
aF50.1
aF45.9
aF41.1
aF48.6
aF31.5
aF49.0
aF61.0
aF56.4
aF49.1
aF47.8
aF51.2
aF65.5
aF54.4
aF41.1
aF40.2
aF41.1
aF44.7
aF55.7
aF65.0
aF55.0
aF54.2
aF35.8
aF39.7
aF52.2
aF51.7
aF46.7
aF49.5
aF52.1
aF62.2
aF49.4
aF46.8
aF38.6
aF45.7
aF45.6
aF44.7
aF39.0
aF59.0
aF69.9
aF62.4
aF48.0
aF34.2
aF34.7
aF36.5
aF39.8
aF47.8
aF61.6
aF50.7
aF37.0
aF35.8
aF26.9
aF35.9
aF43.1
aF47.9
aF42.3
aF50.2
aF43.6
aF41.0
aF42.1
aF42.3
aF49.1
aF47.5
aF58.1
aF45.4
aF45.8
aF48.5
aF45.3
aF43.4
aF52.8
aF44.4
aF42.3
aF51.6
aF42.2
aF48.1
aF54.5
aF61.0
aF46.0
aF27.7
aF35.1
aF29.6
aF37.7
aF45.1
aF48.2
aF43.5
aF53.6
aF48.5
aF47.8
aF50.7
aF44.3
aF52.6
aF46.8
aF42.6
aF51.6
aF56.8
aF58.2
aF61.5
aF61.4
aF59.3
aF54.4
aF68.1
aF55.2
aF63.4
aF99.3
aF112.0
aF110.0
aF112.0
aF110.0
aF112.0
aF110.0
aF112.0
aF110.0
aF112.0
aF111.0
aF112.0
aF110.0
aF112.0
aF111.0
aF112.0
aF110.0
aF112.0
aF110.0
aF112.0
aF111.0
aF112.0
aF110.0
aF112.0
aF111.0
aF111.0
aF109.0
aF112.0
aF111.0
aF111.0
aF110.0
aF111.0
aF110.0
aF110.0
aF111.0
aF111.0
aF111.0
aF112.0
aF111.0
aF108.0
aF105.0
aF108.0
aF106.0
aF112.0
aF111.0
aF111.0
aF110.0
aF111.0
aF111.0
aF111.0
aF111.0
aF111.0
aF111.0
aF111.0
aF112.0
aF111.0
aF106.0
aF109.0
aF110.0
aF111.0
aF111.0
aF111.0
aF109.0
aF111.0
aF111.0
aF111.0
aF111.0
aF111.0
aF111.0
aF110.0
aF111.0
aF111.0
aF111.0
aF111.0
aF111.0
aF110.0
aF111.0
aF109.0
aF111.0
aF111.0
aF112.0
aF111.0
aF112.0
aF111.0
aF112.0
aF111.0
aF111.0
aF109.0
aF110.0
aF110.0
aF111.0
aF111.0
aF112.0
aF109.0
aF112.0
aF111.0
aF111.0
aF110.0
aF111.0
aF111.0
aF110.0
aF110.0
aF111.0
aF111.0
aF112.0
aF110.0
aF112.0
aF110.0
aF111.0
aF110.0
aF112.0
aF110.0
aF104.0
a.