(lp0
I0
aF106.0
aF112.0
aF109.0
aF112.0
aF112.0
aF112.0
aF112.0
aF112.0
aF112.0
aF111.0
aF112.0
aF111.0
aF112.0
aF112.0
aF112.0
aF112.0
aF111.0
aF112.0
aF86.9
aF68.8
aF56.3
aF53.4
aF74.4
aF56.5
aF73.1
aF79.2
aF45.6
aF37.3
aF30.3
aF44.2
aF68.7
aF79.5
aF67.6
aF55.6
aF64.1
aF61.9
aF54.6
aF43.9
aF42.0
aF112.0
aF112.0
aF112.0
aF112.0
aF112.0
aF112.0
aF110.0
aF112.0
aF112.0
aF112.0
aF112.0
aF112.0
aF112.0
aF112.0
aF112.0
aF111.0
aF112.0
aF112.0
aF112.0
aF112.0
aF112.0
aF112.0
aF112.0
aF112.0
aF112.0
aF112.0
aF112.0
aF112.0
aF112.0
aF112.0
aF111.0
aF112.0
aF112.0
aF112.0
aF112.0
aF112.0
aF112.0
aF112.0
aF112.0
aF112.0
aF112.0
aF112.0
aF112.0
aF112.0
aF112.0
aF112.0
aF112.0
aF112.0
aF112.0
aF112.0
aF112.0
aF112.0
aF112.0
aF112.0
aF112.0
aF112.0
aF112.0
aF112.0
aF112.0
aF112.0
aF112.0
aF112.0
aF112.0
aF112.0
aF112.0
aF112.0
aF112.0
aF112.0
aF112.0
aF112.0
aF112.0
aF112.0
aF112.0
aF112.0
aF112.0
aF111.0
aF112.0
aF112.0
aF112.0
aF112.0
aF112.0
aF5.86
a.